(lp0
(lp1
ccopy_reg
_reconstructor
p2
(cevernote.edam.type.ttypes
Notebook
p3
c__builtin__
object
p4
Ntp5
Rp6
(dp7
S'name'
p8
S'Code'
p9
sS'defaultNotebook'
p10
I00
sS'serviceUpdated'
p11
L1352471844000L
sS'sharedNotebookIds'
p12
NsS'sharedNotebooks'
p13
NsS'updateSequenceNum'
p14
I26702
sS'published'
p15
NsS'serviceCreated'
p16
L1298001915000L
sS'guid'
p17
S'4e63b5f5-f44a-4b3e-98ca-b648b63a152b'
p18
sS'stack'
p19
S'Little Used'
p20
sS'publishing'
p21
Nsbag2
(g3
g4
Ntp22
Rp23
(dp24
g8
S'GRE\xe7\xac\x94\xe8\xae\xb0'
p25
sg10
I00
sg11
L1352471853000L
sg12
Nsg13
Nsg14
I26703
sg15
Nsg16
L1287925533000L
sg17
S'324339c0-76bc-452e-b052-860cf173df07'
p26
sg19
S'Little Used'
p27
sg21
Nsbag2
(g3
g4
Ntp28
Rp29
(dp30
g8
S'papers'
p31
sg10
I00
sg11
L1352471855000L
sg12
Nsg13
Nsg14
I26704
sg15
Nsg16
L1313124306000L
sg17
S'adb33df1-c358-45ec-8f4a-db97d66117c8'
p32
sg19
S'Study Notes'
p33
sg21
Nsbag2
(g3
g4
Ntp34
Rp35
(dp36
g8
S'\xe4\xb8\x93\xe4\xb8\x9a\xe4\xb9\xa6'
p37
sg10
I00
sg11
L1357132853000L
sg12
(lp38
I20723
asg13
Nsg14
I26706
sg15
Nsg16
L1345170234000L
sg17
S'f991925b-e596-46e1-9238-6e5220390816'
p39
sg19
S'Study Notes'
p40
sg21
Nsbag2
(g3
g4
Ntp41
Rp42
(dp43
g8
S'ideas'
p44
sg10
I00
sg11
L1352471858000L
sg12
Nsg13
Nsg14
I26708
sg15
Nsg16
L1297861659000L
sg17
S'3e0f4164-10c5-4d67-ae5a-b4bb81d04292'
p45
sg19
S'Study Notes'
p46
sg21
Nsbag2
(g3
g4
Ntp47
Rp48
(dp49
g8
S'\xe8\xaf\xbb\xe4\xb9\xa6\xe7\xac\x94\xe8\xae\xb0'
p50
sg10
I00
sg11
L1352471863000L
sg12
Nsg13
Nsg14
I26709
sg15
Nsg16
L1288265669000L
sg17
S'4f1527ff-15d4-420b-a077-6b3165d59448'
p51
sg19
S'\xe5\xb0\x8f\xe6\x96\x87\xe8\x89\xba'
p52
sg21
Nsbag2
(g3
g4
Ntp53
Rp54
(dp55
g8
S'\xe6\x84\x9a\xe8\xa7\x81'
p56
sg10
I00
sg11
L1352471864000L
sg12
Nsg13
Nsg14
I26710
sg15
Nsg16
L1339944028000L
sg17
S'3f54291d-ab6b-4728-a5e1-0404d5453da5'
p57
sg19
S'\xe5\xb0\x8f\xe6\x96\x87\xe8\x89\xba'
p58
sg21
Nsbag2
(g3
g4
Ntp59
Rp60
(dp61
g8
S'math tools'
p62
sg10
I00
sg11
L1352471865000L
sg12
Nsg13
Nsg14
I26711
sg15
Nsg16
L1298277418000L
sg17
S'96283d5f-eabe-4382-8056-ed2098ba3183'
p63
sg19
S'Tool'
p64
sg21
Nsbag2
(g3
g4
Ntp65
Rp66
(dp67
g8
S'\xe8\xaf\x8d\xe6\xa0\xb9'
p68
sg10
I00
sg11
L1352471866000L
sg12
Nsg13
Nsg14
I26712
sg15
Nsg16
L1291737500000L
sg17
S'dd5304d4-5e67-40ae-8686-b74ca2f13bf1'
p69
sg19
S'Little Used'
p70
sg21
Nsbag2
(g3
g4
Ntp71
Rp72
(dp73
g8
S'\xe5\x90\xac\xe5\x86\x99\xe8\xae\xb0\xe5\xbd\x95'
p74
sg10
I00
sg11
L1352471872000L
sg12
Nsg13
Nsg14
I26713
sg15
Nsg16
L1330013375000L
sg17
S'948a721c-096f-4a68-ba85-1af7a5a879f2'
p75
sg19
S'\xe8\x8b\xb1\xe8\xaf\xad'
p76
sg21
Nsbag2
(g3
g4
Ntp77
Rp78
(dp79
g8
S'emacs'
p80
sg10
I00
sg11
L1357134657000L
sg12
Nsg13
Nsg14
I26714
sg15
Nsg16
L1308211169000L
sg17
S'a613e888-feba-4752-8edf-6cafbc5d6231'
p81
sg19
S'Tool'
p82
sg21
Nsbag2
(g3
g4
Ntp83
Rp84
(dp85
g8
S'build tools'
p86
sg10
I00
sg11
L1355193996000L
sg12
Nsg13
Nsg14
I26715
sg15
Nsg16
L1307356461000L
sg17
S'261d66ad-aa37-4390-9f07-7d69cf8e8ef7'
p87
sg19
S'Tool'
p88
sg21
Nsbag2
(g3
g4
Ntp89
Rp90
(dp91
g8
S'\xe6\x97\xa0\xe5\xa4\x84\xe5\xae\x89\xe6\x94\xbe\xe7\x9a\x84\xe9\x9d\x92\xe6\x98\xa5'
p92
sg10
I00
sg11
L1358504567000L
sg12
Nsg13
Nsg14
I26716
sg15
Nsg16
L1332735310000L
sg17
S'6581874a-24c9-4f16-b8b3-913afc527936'
p93
sg19
S'\xe4\xb8\xaa\xe4\xba\xba\xe7\xa9\xba\xe9\x97\xb4'
p94
sg21
Nsbag2
(g3
g4
Ntp95
Rp96
(dp97
g8
S'graph theory'
p98
sg10
I00
sg11
L1352471880000L
sg12
Nsg13
Nsg14
I26717
sg15
Nsg16
L1335241371000L
sg17
S'da9b3d4d-700c-4270-acbb-0177f3e0f934'
p99
sg19
S'Study Notes'
p100
sg21
Nsbag2
(g3
g4
Ntp101
Rp102
(dp103
g8
S'vim'
p104
sg10
I00
sg11
L1352471881000L
sg12
Nsg13
Nsg14
I26718
sg15
Nsg16
L1298002958000L
sg17
S'c814ef0a-c6b0-4019-b43a-f15d185fe0ad'
p105
sg19
S'Little Used'
p106
sg21
Nsbag2
(g3
g4
Ntp107
Rp108
(dp109
g8
S'zju'
p110
sg10
I00
sg11
L1353471932000L
sg12
Nsg13
Nsg14
I26720
sg15
Nsg16
L1326110304000L
sg17
S'f3c1c21b-59e4-414e-9bd5-47d20b7825cb'
p111
sg19
S'Little Used'
p112
sg21
Nsbag2
(g3
g4
Ntp113
Rp114
(dp115
g8
S'qt'
p116
sg10
I00
sg11
L1352555020000L
sg12
Nsg13
Nsg14
I26722
sg15
Nsg16
L1298002960000L
sg17
S'ef2045a0-e65d-41c3-afbe-7bc3bab807f5'
p117
sg19
S'Tool'
p118
sg21
Nsbag2
(g3
g4
Ntp119
Rp120
(dp121
g8
S'synchronization'
p122
sg10
I00
sg11
L1352471894000L
sg12
Nsg13
Nsg14
I26723
sg15
Nsg16
L1337048669000L
sg17
S'87c43257-5236-46fa-9b98-b33b5b00633c'
p123
sg19
S'Study Notes'
p124
sg21
Nsbag2
(g3
g4
Ntp125
Rp126
(dp127
g8
S'previous'
p128
sg10
I00
sg11
L1352471895000L
sg12
Nsg13
Nsg14
I26724
sg15
Nsg16
L1298277416000L
sg17
S'961780cc-c4d2-4365-816f-a4a21e8b6db5'
p129
sg19
S'Little Used'
p130
sg21
Nsbag2
(g3
g4
Ntp131
Rp132
(dp133
g8
S'latex'
p134
sg10
I00
sg11
L1352471896000L
sg12
Nsg13
Nsg14
I26725
sg15
Nsg16
L1298001913000L
sg17
S'9ff11478-6e18-48e4-9f28-e391a39abc36'
p135
sg19
S'Tool'
p136
sg21
Nsbag2
(g3
g4
Ntp137
Rp138
(dp139
g8
S'windows'
p140
sg10
I00
sg11
L1352471899000L
sg12
Nsg13
Nsg14
I26727
sg15
Nsg16
L1298001912000L
sg17
S'd9ea6fe2-fb7e-4951-9ef3-1761a10827f0'
p141
sg19
S'Little Used'
p142
sg21
Nsbag2
(g3
g4
Ntp143
Rp144
(dp145
g8
S'\xe7\x85\xa7\xe7\x89\x87'
p146
sg10
I00
sg11
L1358340714000L
sg12
Nsg13
Nsg14
I26728
sg15
Nsg16
L1331538146000L
sg17
S'5e21ed7a-0705-4949-a90d-77c49e7fa763'
p147
sg19
S'\xe4\xb8\xaa\xe4\xba\xba\xe7\xa9\xba\xe9\x97\xb4'
p148
sg21
Nsbag2
(g3
g4
Ntp149
Rp150
(dp151
g8
S'phd info'
p152
sg10
I00
sg11
L1353471931000L
sg12
Nsg13
Nsg14
I26729
sg15
Nsg16
L1336630250000L
sg17
S'52ab4ab2-f8a0-4748-9bb0-35f2a7d8e5a4'
p153
sg19
S'Little Used'
p154
sg21
Nsbag2
(g3
g4
Ntp155
Rp156
(dp157
g8
S'math'
p158
sg10
I00
sg11
L1352471901000L
sg12
Nsg13
Nsg14
I26731
sg15
Nsg16
L1294639015000L
sg17
S'44dbe6da-c310-4664-986d-69783fd81371'
p159
sg19
S'Study Notes'
p160
sg21
Nsbag2
(g3
g4
Ntp161
Rp162
(dp163
g8
S'c++'
p164
sg10
I00
sg11
L1353138279000L
sg12
Nsg13
Nsg14
I26732
sg15
Nsg16
L1298801712000L
sg17
S'e3a9caa0-d2bd-4915-9de8-7f97befcd6d5'
p165
sg19
S'Tool'
p166
sg21
Nsbag2
(g3
g4
Ntp167
Rp168
(dp169
g8
S'chaos'
p170
sg10
I00
sg11
L1352471903000L
sg12
Nsg13
Nsg14
I26734
sg15
Nsg16
L1331881412000L
sg17
S'cc95b62a-98a1-465e-b22c-8d153d9f5f60'
p171
sg19
S'Study Notes'
p172
sg21
Nsbag2
(g3
g4
Ntp173
Rp174
(dp175
g8
S'pcn'
p176
sg10
I00
sg11
L1352471919000L
sg12
Nsg13
Nsg14
I26736
sg15
Nsg16
L1348563100000L
sg17
S'0767cfe1-abbc-4a0e-ab38-fc4ce82722ef'
p177
sg19
S'Study Notes'
p178
sg21
Nsbag2
(g3
g4
Ntp179
Rp180
(dp181
g8
S'\xe6\x8a\x84\xe5\x86\x99\xe8\xae\xb0\xe5\xbd\x95'
p182
sg10
I00
sg11
L1352471920000L
sg12
Nsg13
Nsg14
I26737
sg15
Nsg16
L1330706225000L
sg17
S'faa13963-dcea-4c53-b233-dbf053a3a75e'
p183
sg19
S'\xe8\x8b\xb1\xe8\xaf\xad'
p184
sg21
Nsbag2
(g3
g4
Ntp185
Rp186
(dp187
g8
S'fortran'
p188
sg10
I00
sg11
L1352471923000L
sg12
Nsg13
Nsg14
I26738
sg15
Nsg16
L1320371915000L
sg17
S'95ea2f90-9a15-4809-a0ff-44834d15e52e'
p189
sg19
S'Little Used'
p190
sg21
Nsbag2
(g3
g4
Ntp191
Rp192
(dp193
g8
S'\xe6\x9c\x89\xe7\x9b\x8a\xe8\xb5\x84\xe6\x96\x99'
p194
sg10
I00
sg11
L1358337503000L
sg12
Nsg13
Nsg14
I26739
sg15
Nsg16
L1339939702000L
sg17
S'9c55c4e3-8a9d-453d-88c2-db03fc71b661'
p195
sg19
S'\xe5\xb0\x8f\xe6\x96\x87\xe8\x89\xba'
p196
sg21
Nsbag2
(g3
g4
Ntp197
Rp198
(dp199
g8
S'\xe6\x96\xb0\xe6\xa6\x82\xe5\xbf\xb5'
p200
sg10
I00
sg11
L1352471926000L
sg12
Nsg13
Nsg14
I26740
sg15
Nsg16
L1329467150000L
sg17
S'315ccae8-2742-46be-bcee-c8df959eb33f'
p201
sg19
S'\xe8\x8b\xb1\xe8\xaf\xad'
p202
sg21
Nsbag2
(g3
g4
Ntp203
Rp204
(dp205
g8
S'\xe6\x88\x91\xe7\x9a\x84\xe6\x96\x87\xe6\xa1\xa3'
p206
sg10
I00
sg11
L1355723526000L
sg12
Nsg13
Nsg14
I26741
sg15
Nsg16
L1346511441000L
sg17
S'ee00ad4f-2728-4678-882d-de3b1c627cfd'
p207
sg19
S'Little Used'
p208
sg21
Nsbag2
(g3
g4
Ntp209
Rp210
(dp211
g8
S'linux'
p212
sg10
I00
sg11
L1352555021000L
sg12
Nsg13
Nsg14
I26743
sg15
Nsg16
L1288408029000L
sg17
S'a129bc6e-8ea5-4e2d-a4bf-7acea1a2cec8'
p213
sg19
S'Tool'
p214
sg21
Nsbag2
(g3
g4
Ntp215
Rp216
(dp217
g8
S'mac'
p218
sg10
I00
sg11
L1352471938000L
sg12
Nsg13
Nsg14
I26744
sg15
Nsg16
L1349671436000L
sg17
S'cabdfe81-16fc-41d1-9dea-73418a73f502'
p219
sg19
S'Tool'
p220
sg21
Nsbag2
(g3
g4
Ntp221
Rp222
(dp223
g8
S'\xe9\x98\x85\xe8\xaf\xbb\xe8\xb5\x84\xe6\x96\x99'
p224
sg10
I00
sg11
L1357475184000L
sg12
(lp225
I21138
aI21180
asg13
Nsg14
I26745
sg15
I00
sg16
L1350992059000L
sg17
S'ec0e511f-e239-482f-987b-041e66ce6aaf'
p226
sg19
S'\xe5\xb0\x8f\xe6\x96\x87\xe8\x89\xba'
p227
sg21
g2
(cevernote.edam.type.ttypes
Publishing
p228
g4
Ntp229
Rp230
(dp231
S'ascending'
p232
I00
sS'uri'
p233
S'ifeng_reading'
p234
sS'publicDescription'
p235
NsS'order'
p236
I1
sbsbag2
(g3
g4
Ntp237
Rp238
(dp239
g8
S'\xe5\xae\x9e\xe9\xaa\x8c\xe5\xae\xa4\xe5\xb0\x8f\xe7\xab\x99'
p240
sg10
I00
sg11
L1358504567000L
sg12
(lp241
I21182
aI21183
asg13
Nsg14
I26746
sg15
Nsg16
L1352359155000L
sg17
S'5592020a-8f33-44d8-a8a1-9d6cf5dc82e5'
p242
sg19
S'\xe5\xb0\x8f\xe6\x96\x87\xe8\x89\xba'
p243
sg21
Nsbag2
(g3
g4
Ntp244
Rp245
(dp246
g8
S'mathematica'
p247
sg10
I00
sg11
L1352630265000L
sg12
Nsg13
Nsg14
I26856
sg15
Nsg16
L1352535965000L
sg17
S'7e7ec457-6c0a-45b0-9e62-0d10f9f29909'
p248
sg19
S'Tool'
p249
sg21
Nsbag2
(g3
g4
Ntp250
Rp251
(dp252
g8
S'\xe4\xb9\xa6\xe7\x94\xbb'
p253
sg10
I00
sg11
L1353042961000L
sg12
Nsg13
Nsg14
I27275
sg15
Nsg16
L1353042031000L
sg17
S'5fa577da-ebd6-44b2-a6ea-32aafe992096'
p254
sg19
S'\xe5\xb0\x8f\xe6\x96\x87\xe8\x89\xba'
p255
sg21
Nsbag2
(g3
g4
Ntp256
Rp257
(dp258
g8
S'\xe8\xaf\x97\xe8\xaf\x8d'
p259
sg10
I00
sg11
L1353042961000L
sg12
Nsg13
Nsg14
I27276
sg15
Nsg16
L1331907398000L
sg17
S'8edd7acd-8d79-473d-9493-4f54de04d00d'
p260
sg19
S'\xe5\xb0\x8f\xe6\x96\x87\xe8\x89\xba'
p261
sg21
Nsbag2
(g3
g4
Ntp262
Rp263
(dp264
g8
S'\xe4\xb9\xa6\xe5\xba\x93'
p265
sg10
I00
sg11
L1352471898000L
sg12
(lp266
I22074
asg13
Nsg14
I27622
sg15
Nsg16
L1337957657000L
sg17
S'a988187e-8819-49fa-a244-1f6c9139c868'
p267
sg19
S'\xe5\xb0\x8f\xe6\x96\x87\xe8\x89\xba'
p268
sg21
Nsbag2
(g3
g4
Ntp269
Rp270
(dp271
g8
S'operating system'
p272
sg10
I00
sg11
L1355723525000L
sg12
Nsg13
Nsg14
I28343
sg15
Nsg16
L1354093532000L
sg17
S'58c0b55a-4e21-44c5-9bbf-418948ed10e4'
p273
sg19
S'Study Notes'
p274
sg21
Nsbag2
(g3
g4
Ntp275
Rp276
(dp277
g8
S'\xe6\x91\x98\xe5\xbd\x95'
p278
sg10
I00
sg11
L1356441830000L
sg12
Nsg13
Nsg14
I28665
sg15
Nsg16
L1356441830000L
sg17
S'6e45d7e3-4849-45d5-a23c-0726ede7013d'
p279
sg19
S'\xe5\xb0\x8f\xe6\x96\x87\xe8\x89\xba'
p280
sg21
Nsbag2
(g3
g4
Ntp281
Rp282
(dp283
g8
S'\xe8\xb5\xb7\xe5\xb1\x85\xe6\xb3\xa8'
p284
sg10
I00
sg11
L1357142886000L
sg12
Nsg13
Nsg14
I29234
sg15
Nsg16
L1344181695000L
sg17
S'2d823cf2-7224-43ff-be76-f90f02dc3e71'
p285
sg19
Nsg21
Nsbag2
(g3
g4
Ntp286
Rp287
(dp288
g8
S'\xe9\x81\x93\xe5\xbe\xb7\xe7\xbb\x8f'
p289
sg10
I00
sg11
L1357142887000L
sg12
Nsg13
Nsg14
I29236
sg15
Nsg16
L1357142887000L
sg17
S'd4b7cf31-1290-49f6-b3bb-2d0a0a5ee69c'
p290
sg19
S'\xe7\xb2\xbe\xe8\xaf\xbb\xe4\xb9\xa6\xe7\x9b\xae'
p291
sg21
Nsbag2
(g3
g4
Ntp292
Rp293
(dp294
g8
S'\xe5\x8f\xb2\xe8\xae\xb0'
p295
sg10
I00
sg11
L1357146153000L
sg12
Nsg13
Nsg14
I29400
sg15
Nsg16
L1357146153000L
sg17
S'7ea371e0-c4ca-48c6-924d-0ab42a3a5cb3'
p296
sg19
S'\xe7\xb2\xbe\xe8\xaf\xbb\xe4\xb9\xa6\xe7\x9b\xae'
p297
sg21
Nsbag2
(g3
g4
Ntp298
Rp299
(dp300
g8
S'\xe8\x91\x97\xe5\x90\x8d\xe5\x8f\xa4\xe6\x96\x87'
p301
sg10
I00
sg11
L1357146732000L
sg12
Nsg13
Nsg14
I29404
sg15
Nsg16
L1357146732000L
sg17
S'5e6e1270-7594-4e28-82d9-cd9ff320a071'
p302
sg19
S'\xe7\xb2\xbe\xe8\xaf\xbb\xe4\xb9\xa6\xe7\x9b\xae'
p303
sg21
Nsbag2
(g3
g4
Ntp304
Rp305
(dp306
g8
S'\xe5\xa4\xa9\xe7\xa6\x84\xe9\x98\x81'
p307
sg10
I00
sg11
L1357475185000L
sg12
Nsg13
Nsg14
I29544
sg15
Nsg16
L1357366030000L
sg17
S'fceb9050-80c7-4129-be74-03f8ce201699'
p308
sg19
S'\xe5\xb0\x8f\xe6\x96\x87\xe8\x89\xba'
p309
sg21
Nsbag2
(g3
g4
Ntp310
Rp311
(dp312
g8
S'2:\xe8\x8b\xb1\xe8\xaf\xad\xe8\xae\xb0\xe5\xbf\x86'
p313
sg10
I00
sg11
L1357395233000L
sg12
Nsg13
Nsg14
I29633
sg15
Nsg16
L1345811842000L
sg17
S'662330fa-4789-46fb-ae3a-9b75db01b9cb'
p314
sg19
S'\xe8\x8b\xb1\xe8\xaf\xad'
p315
sg21
Nsbag2
(g3
g4
Ntp316
Rp317
(dp318
g8
S'complex network'
p319
sg10
I00
sg11
L1357395234000L
sg12
Nsg13
Nsg14
I29634
sg15
Nsg16
L1329117755000L
sg17
S'b2eb7216-54c4-405f-a4be-649e0c7c6b13'
p320
sg19
S'Study Notes'
p321
sg21
Nsbag2
(g3
g4
Ntp322
Rp323
(dp324
g8
S'5:graphViz'
p325
sg10
I00
sg11
L1357395234000L
sg12
Nsg13
Nsg14
I29635
sg15
Nsg16
L1329902919000L
sg17
S'82b498dc-31b6-4e23-b1b9-d25efe15d017'
p326
sg19
S'Tool'
p327
sg21
Nsbag2
(g3
g4
Ntp328
Rp329
(dp330
g8
S'tikz'
p331
sg10
I00
sg11
L1357395234000L
sg12
Nsg13
Nsg14
I29636
sg15
Nsg16
L1303143514000L
sg17
S'934b26c4-2cf7-4df0-b780-69b9dc5a35bf'
p332
sg19
S'Tool'
p333
sg21
Nsbag2
(g3
g4
Ntp334
Rp335
(dp336
g8
S'3:IELTS'
p337
sg10
I00
sg11
L1357395235000L
sg12
Nsg13
Nsg14
I29637
sg15
Nsg16
L1341624473000L
sg17
S'2ee1d3df-fdfb-43f9-854e-b95da5267b9f'
p338
sg19
S'\xe8\x8b\xb1\xe8\xaf\xad'
p339
sg21
Nsbag2
(g3
g4
Ntp340
Rp341
(dp342
g8
S'8:workspace'
p343
sg10
I01
sg11
L1359966589000L
sg12
Nsg13
Nsg14
I29638
sg15
Nsg16
L1352471945000L
sg17
S'004ec16b-803d-4f68-a17a-64c9f1c53de6'
p344
sg19
Nsg21
Nsbag2
(g3
g4
Ntp345
Rp346
(dp347
g8
S'7:computer network'
p348
sg10
I00
sg11
L1357395236000L
sg12
Nsg13
Nsg14
I29640
sg15
Nsg16
L1355812996000L
sg17
S'628753e7-1e3e-46f4-824e-ef28a01f2fc5'
p349
sg19
S'Study Notes'
p350
sg21
Nsbag2
(g3
g4
Ntp351
Rp352
(dp353
g8
S'9:Reading'
p354
sg10
I00
sg11
L1357395237000L
sg12
Nsg13
Nsg14
I29642
sg15
Nsg16
L1357372193000L
sg17
S'd3e3f05d-8d41-4d16-ada5-ae161ddcef5a'
p355
sg19
S'\xe8\x8b\xb1\xe8\xaf\xad'
p356
sg21
Nsbag2
(g3
g4
Ntp357
Rp358
(dp359
g8
S'4:computer architecture'
p360
sg10
I00
sg11
L1358504568000L
sg12
Nsg13
Nsg14
I29728
sg15
Nsg16
L1355723525000L
sg17
S'0098acd6-29b8-439f-913b-76db82a044e1'
p361
sg19
S'Study Notes'
p362
sg21
Nsbag2
(g3
g4
Ntp363
Rp364
(dp365
g8
S'\xe9\x87\x91\xe7\x8e\x89\xe8\x89\xaf\xe7\xbc\x98'
p366
sg10
I00
sg11
L1358337499000L
sg12
Nsg13
Nsg14
I29892
sg15
Nsg16
L1356269268000L
sg17
S'56801ff7-bb18-4f2b-9150-b5a6e9d00e3e'
p367
sg19
S'\xe4\xb8\xaa\xe4\xba\xba\xe7\xa9\xba\xe9\x97\xb4'
p368
sg21
Nsbag2
(g3
g4
Ntp369
Rp370
(dp371
g8
S'6:algorithm'
p372
sg10
I00
sg11
L1358950543000L
sg12
Nsg13
Nsg14
I30874
sg15
Nsg16
L1330651184000L
sg17
S'96f77ae8-0607-42a4-ab38-bc9796efb714'
p373
sg19
S'Tool'
p374
sg21
Nsbag2
(g3
g4
Ntp375
Rp376
(dp377
g8
S'\xe7\xba\xa2\xe6\xa5\xbc\xe6\xa2\xa6\xe8\x84\x82\xe6\xb1\x87\xe6\x9c\xac'
p378
sg10
I00
sg11
L1358950543000L
sg12
Nsg13
Nsg14
I30875
sg15
Nsg16
L1356442489000L
sg17
S'df8fea02-6ae4-44a0-b8be-ff338f162368'
p379
sg19
S'\xe7\xb2\xbe\xe8\xaf\xbb\xe4\xb9\xa6\xe7\x9b\xae'
p380
sg21
Nsbag2
(g3
g4
Ntp381
Rp382
(dp383
g8
S'python'
p384
sg10
I00
sg11
L1359181680000L
sg12
Nsg13
Nsg14
I30881
sg15
Nsg16
L1354535317000L
sg17
S'2d3e3995-d9b1-4df5-811f-3ae778951f6b'
p385
sg19
S'Tool'
p386
sg21
Nsbaag2
(cevernote.edam.notestore.ttypes
NoteCollectionCounts
p387
g4
Ntp388
Rp389
(dp390
S'trashCount'
p391
NsS'notebookCounts'
p392
(dp393
S'4e63b5f5-f44a-4b3e-98ca-b648b63a152b'
p394
I60
sS'df8fea02-6ae4-44a0-b8be-ff338f162368'
p395
I80
sS'96f77ae8-0607-42a4-ab38-bc9796efb714'
p396
I6
sS'662330fa-4789-46fb-ae3a-9b75db01b9cb'
p397
I163
sS'ef2045a0-e65d-41c3-afbe-7bc3bab807f5'
p398
I55
sS'934b26c4-2cf7-4df0-b780-69b9dc5a35bf'
p399
I108
sS'9ff11478-6e18-48e4-9f28-e391a39abc36'
p400
I90
sS'0098acd6-29b8-439f-913b-76db82a044e1'
p401
I15
sS'0767cfe1-abbc-4a0e-ab38-fc4ce82722ef'
p402
I219
sS'7e7ec457-6c0a-45b0-9e62-0d10f9f29909'
p403
I2
sS'58c0b55a-4e21-44c5-9bbf-418948ed10e4'
p404
I8
sS'cabdfe81-16fc-41d1-9dea-73418a73f502'
p405
I7
sS'5592020a-8f33-44d8-a8a1-9d6cf5dc82e5'
p406
I43
sS'f3c1c21b-59e4-414e-9bd5-47d20b7825cb'
p407
I28
sS'96283d5f-eabe-4382-8056-ed2098ba3183'
p408
I9
sS'3f54291d-ab6b-4728-a5e1-0404d5453da5'
p409
I15
sS'dd5304d4-5e67-40ae-8686-b74ca2f13bf1'
p410
I260
sS'adb33df1-c358-45ec-8f4a-db97d66117c8'
p411
I27
sS'87c43257-5236-46fa-9b98-b33b5b00633c'
p412
I16
sS'f991925b-e596-46e1-9238-6e5220390816'
p413
I56
sS'ee00ad4f-2728-4678-882d-de3b1c627cfd'
p414
I24
sS'd9ea6fe2-fb7e-4951-9ef3-1761a10827f0'
p415
I27
sS'3e0f4164-10c5-4d67-ae5a-b4bb81d04292'
p416
I22
sS'961780cc-c4d2-4365-816f-a4a21e8b6db5'
p417
I50
sS'8edd7acd-8d79-473d-9493-4f54de04d00d'
p418
I29
sS'82b498dc-31b6-4e23-b1b9-d25efe15d017'
p419
I16
sS'da9b3d4d-700c-4270-acbb-0177f3e0f934'
p420
I60
sS'6e45d7e3-4849-45d5-a23c-0726ede7013d'
p421
I2
sS'324339c0-76bc-452e-b052-860cf173df07'
p422
I87
sS'5fa577da-ebd6-44b2-a6ea-32aafe992096'
p423
I75
sS'628753e7-1e3e-46f4-824e-ef28a01f2fc5'
p424
I46
sS'c814ef0a-c6b0-4019-b43a-f15d185fe0ad'
p425
I24
sS'5e21ed7a-0705-4949-a90d-77c49e7fa763'
p426
I241
sS'd4b7cf31-1290-49f6-b3bb-2d0a0a5ee69c'
p427
I81
sS'b2eb7216-54c4-405f-a4be-649e0c7c6b13'
p428
I51
sS'e3a9caa0-d2bd-4915-9de8-7f97befcd6d5'
p429
I190
sS'cc95b62a-98a1-465e-b22c-8d153d9f5f60'
p430
I6
sS'7ea371e0-c4ca-48c6-924d-0ab42a3a5cb3'
p431
I1
sS'52ab4ab2-f8a0-4748-9bb0-35f2a7d8e5a4'
p432
I37
sS'9c55c4e3-8a9d-453d-88c2-db03fc71b661'
p433
I16
sS'004ec16b-803d-4f68-a17a-64c9f1c53de6'
p434
I6
sS'a129bc6e-8ea5-4e2d-a4bf-7acea1a2cec8'
p435
I94
sS'5e6e1270-7594-4e28-82d9-cd9ff320a071'
p436
I1
sS'faa13963-dcea-4c53-b233-dbf053a3a75e'
p437
I25
sS'95ea2f90-9a15-4809-a0ff-44834d15e52e'
p438
I38
sS'2ee1d3df-fdfb-43f9-854e-b95da5267b9f'
p439
I83
sS'44dbe6da-c310-4664-986d-69783fd81371'
p440
I88
sS'56801ff7-bb18-4f2b-9150-b5a6e9d00e3e'
p441
I164
sS'6581874a-24c9-4f16-b8b3-913afc527936'
p442
I62
sS'd3e3f05d-8d41-4d16-ada5-ae161ddcef5a'
p443
I80
sS'2d823cf2-7224-43ff-be76-f90f02dc3e71'
p444
I294
sS'a988187e-8819-49fa-a244-1f6c9139c868'
p445
I40
sS'948a721c-096f-4a68-ba85-1af7a5a879f2'
p446
I57
sS'a613e888-feba-4752-8edf-6cafbc5d6231'
p447
I117
sS'2d3e3995-d9b1-4df5-811f-3ae778951f6b'
p448
I60
sS'261d66ad-aa37-4390-9f07-7d69cf8e8ef7'
p449
I43
sS'315ccae8-2742-46be-bcee-c8df959eb33f'
p450
I104
sS'4f1527ff-15d4-420b-a077-6b3165d59448'
p451
I84
sS'fceb9050-80c7-4129-be74-03f8ce201699'
p452
I14
sS'ec0e511f-e239-482f-987b-041e66ce6aaf'
p453
I100
ssS'tagCounts'
p454
(dp455
S'fa10d799-be7f-43c2-8196-0a02542f08d0'
p456
I3
sS'43a6d4eb-2148-4c7b-9505-c159a8e827b3'
p457
I1
sS'dc83a26c-3214-4f58-a949-257549c2edb2'
p458
I35
sS'af1f32af-9e6e-4ddd-9ba2-9c0e0ca5994b'
p459
I1
sS'0d2b9074-929d-47a3-8721-c596d0471152'
p460
I1
sS'4b00b897-a447-43bf-886a-2ca833904bb6'
p461
I14
sS'f848c023-7b4f-4fa9-9724-6d17c03221a2'
p462
I6
sS'7a78e62f-61c9-46e4-ad32-b30dade0533b'
p463
I1
sS'e0c396a7-615b-412c-b59f-d819afc4cb31'
p464
I6
sS'a451c9de-195c-4c7e-b597-6ac25ebc9dfa'
p465
I6
sS'fdaed6cd-2bbe-4f47-ba69-6841714dec62'
p466
I1
sS'2060b5c2-2bb0-471c-8bb9-a3cb52abf321'
p467
I6
sS'b836ff93-3244-4eef-a280-f0896a3279b8'
p468
I4
sS'9f02f33c-d1d3-42d8-8f1f-635a0abdaada'
p469
I1
sS'cc8f934f-73b9-460f-baed-08b40e26a132'
p470
I132
sS'c706acef-de45-4a99-a291-0385a7810f0b'
p471
I1
sS'4b42609e-53a4-49f6-a3e6-5449f4048c13'
p472
I17
sS'8e448171-5dbf-4774-8cfc-e752946dd2c8'
p473
I85
sS'2b41c8d4-f63b-4518-a724-d42cbbb95db1'
p474
I16
sS'd14d11d2-a2d2-4441-996f-2e1abebc99c8'
p475
I1
sS'b8ca29d6-e0cc-478c-84a8-aa2e1ff12961'
p476
I46
sS'638260ab-38c3-49da-b6cd-3c4fb44e0d0e'
p477
I24
sS'2d62856b-2bab-4545-8092-0dd3231831c7'
p478
I9
sS'dfab80b8-2fae-4efa-832c-349375a5f77a'
p479
I7
sS'ddb59151-aeee-4d96-b123-e1048f66cb8b'
p480
I2
sS'cfe486f6-18c3-4f6f-a5b8-95058cefe228'
p481
I44
sS'a8b91b77-5731-463f-88db-8021feb7e602'
p482
I4
sS'c1f9e928-6cb5-40b7-804a-fa6ed6dd66d2'
p483
I18
sS'f3b470e1-667a-46b1-9a8c-13e45adcfbcf'
p484
I11
sS'96e5e2c8-96c4-47d5-8f31-c26807641522'
p485
I9
sS'7b9fbe81-7cd3-4929-847e-0789aa02e838'
p486
I1
sS'4cddcf24-7b0d-4e6f-866a-dbb44f998872'
p487
I48
sS'1fc5e661-2786-4aeb-9a81-9e65b5dbc62e'
p488
I9
sS'0f6f2267-90a6-443c-864c-77fdc4fa3b54'
p489
I12
sS'19d8a347-dd38-4676-bc9c-daa2a7468d58'
p490
I2
sS'f22af334-2ff4-4a30-b102-7be600ca4441'
p491
I6
sS'b68b9227-0895-4e19-a910-5e876a217e1e'
p492
I2
sS'83dae1ae-ca6f-402a-ab06-e944f012ab84'
p493
I6
sS'ff3fb7ae-8828-45b6-94cb-f95d32ab71e8'
p494
I67
sS'6bc9017f-d644-4120-80c7-6472b4c573fd'
p495
I5
sS'3f46f470-653b-41da-a77e-ab16780df548'
p496
I3
sS'32d6627d-b7dd-4ccc-bcb9-0166dc6b776c'
p497
I30
sS'0c911230-eb36-4a2f-b703-4996f96b84b1'
p498
I161
sS'ef446ec4-70e2-48e2-980b-41f6c6bd50a6'
p499
I2
sS'fdedf7bd-0ead-445d-9c84-0057102f359d'
p500
I1
sS'f7a8ab38-72df-424a-ad81-9b3cd22384d0'
p501
I16
sS'a015f786-4123-4c0f-96bd-ef2f0d31e7c6'
p502
I8
sS'73529a4e-8412-4b4c-b40f-c064a10aece7'
p503
I16
sS'9809eb50-7e63-432a-9d5a-928d5e952b3f'
p504
I11
sS'e3897e2e-64a0-466a-871b-15f8524c1578'
p505
I2
sS'adb12398-09ba-49d7-9357-4df9957fe4c6'
p506
I9
sS'dd41b665-07cc-4af7-92d9-a8f4c78e7520'
p507
I32
sS'2aa2e618-0ae2-466c-abcc-b064cc9af6f3'
p508
I10
sS'2258959e-0050-4f17-ab0e-112fcc3e9c58'
p509
I2
sS'b3a64c82-ed27-4e94-b0ae-8009025d9090'
p510
I6
sS'ef65d1ad-7fa5-49a2-b907-062ec2cbafa1'
p511
I25
sS'6fba34f0-9e0c-486c-b4a5-ae8ea0514693'
p512
I2
sS'208a52ee-a46a-4efa-ad2f-0df67d770bd0'
p513
I1
sS'1d3e0a8c-56dd-4393-990f-21d3728162ff'
p514
I2
sS'558cc246-3d18-413b-904f-8506fe178d5b'
p515
I5
sS'e99644f1-f264-4ac3-bd01-1e663db4b05c'
p516
I5
sS'ea386a41-df62-47df-a74b-6e56cbf598b6'
p517
I1
sS'8bb1cbfe-2003-4a4c-b2ce-9ccd96372e89'
p518
I14
sS'c4a9a650-d2cf-4bfa-9f93-02e2dbe2b855'
p519
I17
sS'c19da2ba-e777-4517-8dd1-e326278e9844'
p520
I51
sS'49451d41-2002-42a3-987e-17ef7e93d128'
p521
I2
sS'cd173046-00fe-4463-a4d4-fda22dc64077'
p522
I9
sS'124cc1a0-faa2-4eff-999d-883ed85936bf'
p523
I42
sS'63d78d8e-cf75-44d7-9f55-7c67bc0f8dd2'
p524
I1
sS'9f84a01f-351f-4444-a46f-a4ecc1ff4ccc'
p525
I4
sS'244d01ad-af68-4481-8eb9-0978e29aeb8f'
p526
I1
sS'362f91cb-de83-4b8c-aef1-d41cacc5b7e0'
p527
I2
sS'4e262073-6d0a-4000-a8e2-ad364d48cd2d'
p528
I37
sS'4750b6a8-c3c3-4cc3-ac81-863638d8e0df'
p529
I1
sS'64e3b706-e69c-4f88-b3fc-ac0191f7212f'
p530
I2
sS'1cfe0b61-6174-411b-8024-da5700f7ea7b'
p531
I11
sS'a18f8787-fbbe-498f-a4ec-50a936c94be2'
p532
I5
sS'3a0d5e3a-bffb-4343-8e8c-678a6f1b0785'
p533
I27
sS'f7aef3d0-028e-4513-88f9-987d4b1363a5'
p534
I2
sS'd1547951-c12c-463f-a410-52243d965450'
p535
I3
sS'8c3bbfc0-75ba-48d0-8323-fb864db3e45b'
p536
I10
sS'8bbf676e-0f59-4db4-9891-cf9c1d0e1c55'
p537
I22
sS'db756c64-ad52-4dd6-a72e-6fff2bab48ea'
p538
I11
sS'f0cbcf12-5e63-4254-8093-1ee1829fe72d'
p539
I2
sS'eb0cdde6-5518-4ce7-b129-86e6d121dad0'
p540
I4
sS'e1e97ebc-f00d-4ae4-a3e0-a56868e80e1c'
p541
I12
sS'4644d828-6da8-4e91-bde0-ee60c255295d'
p542
I1
sS'211cc731-4491-4964-8bf3-2b9b2c2a9f57'
p543
I2
sS'9f04f8fa-982c-493b-909c-9536b070175e'
p544
I16
sS'cb32b56e-8e8f-4d64-af89-8858c1410e83'
p545
I32
sS'30ada4b4-3985-4550-b253-219079fb3fd0'
p546
I13
sS'93c2668d-cdfa-4fd9-a871-ecdcb0aedfb7'
p547
I1
sS'f9d4ee74-d963-4108-8bbc-d5d7f4790863'
p548
I4
sS'f4d40ef7-e80d-4d36-bf79-8acc3fd66bbb'
p549
I3
sS'8c1b6642-b9b7-473d-a89e-12b94c6b05f0'
p550
I18
sS'2f3037c1-258d-440e-96f5-16a04ba0d6fd'
p551
I4
sS'1f89821c-4b7f-41a3-b1be-1fa93fba6e2e'
p552
I23
sS'1ed51801-1dfe-4a63-bb8b-2535b76af209'
p553
I5
sS'582f421b-adfa-4a7b-b3d3-73c3cb891a42'
p554
I1
sS'01b65d21-d774-4da7-9184-a2d78c31753e'
p555
I1
sS'bb321878-708f-4c6e-bfdf-133d0ac44ba2'
p556
I26
sS'85fd1e7d-1faa-4d86-ab55-bf837574290f'
p557
I6
sS'd99b005f-a63c-4aaa-a6ae-fc51bcf85922'
p558
I1
sS'87437732-d7f2-4257-a488-d40470747f09'
p559
I1
sS'305b07c4-a20c-45b2-892c-33f70d35940c'
p560
I7
sS'1beb0562-4b36-4780-bdcf-d6418f174686'
p561
I8
sS'bbf17d90-32ac-4a7d-a784-af0e966ee8f5'
p562
I2
sS'29a09fe5-3d52-49cd-a6ba-7bafbe005a3a'
p563
I8
sS'5a03a1bf-4776-471d-9e64-d973ad051edc'
p564
I5
sS'3f728c3f-a593-4ec3-9305-aee81d48c63a'
p565
I23
sS'563456cb-a708-4ec0-aacf-846366e9a38d'
p566
I1
sS'435f0fd4-f9dd-4da0-9207-706061d875f7'
p567
I7
sS'bfcc8fc4-b764-42da-ab22-4de6e00f0006'
p568
I17
sS'7f1e3d25-b714-487f-a5c7-5556f08825be'
p569
I5
sS'9b4a5218-ec60-4ccd-9817-e1c985c6b948'
p570
I23
sS'95629528-27e5-450a-9fcb-f6163c826192'
p571
I8
sS'3cd9e0ab-45f2-4208-a387-323d3cc5fa7b'
p572
I3
sS'b2c6ca95-2974-4cb9-8932-28fda27391de'
p573
I5
sS'63160302-ae83-4358-b988-9c7b4aa76173'
p574
I2
sS'491c00db-87e1-4701-a30c-9ef36fb02b18'
p575
I7
sS'9d9a5c63-fc25-460b-9f1d-dc2c93af7814'
p576
I20
sS'2d525aaf-6d31-4ad0-8a94-3dba6286bab4'
p577
I7
sS'8f88d803-b98d-4a07-9c14-91ee66322faf'
p578
I3
sS'84028f83-3fcd-4968-8081-81dfa39231c1'
p579
I30
sS'd4e1a228-9653-41cb-b0bc-c7dd2cf2a952'
p580
I2
sS'8e32ed72-b115-4846-afb9-960317c65c55'
p581
I2
sS'665b6791-e497-4401-a69d-3530bf183d59'
p582
I1
sS'a23cf13e-0b15-4ada-b9cd-302fe4b44407'
p583
I11
sS'45e162c5-459d-4790-ba1d-0d8ce064d08c'
p584
I1
sS'78273db2-f447-4176-aea1-605fe7f86e7f'
p585
I12
sS'e7dfa079-0905-4910-af08-74900a591165'
p586
I4
sS'559310ec-106d-43b1-8d7a-ff1d0e864783'
p587
I1
sS'042e89a8-bad9-47c3-8b64-b40b8b618263'
p588
I1
sS'7d717570-2ef5-452b-b216-86912a65b3ae'
p589
I13
sS'2e729b66-a465-4664-8134-bc0044ae6b22'
p590
I11
sS'993ee2ce-bd47-4976-aee9-ac405fe1271f'
p591
I12
sS'22cbc4c2-dfe7-48de-8704-0418221ba1cb'
p592
I80
sS'b716977f-ca38-4824-a8c3-0ef1c96a36cb'
p593
I9
sS'b5477cea-f638-46fb-baf3-281d42ca7fea'
p594
I4
sS'1903da59-151f-4b2d-9a68-2ee4d498bdc5'
p595
I21
sS'3e1b5963-2608-4452-97f1-a96806d1208d'
p596
I1
sS'0024d578-feff-41fd-88e8-a9e559f601a0'
p597
I39
sS'bf36e3a5-9aab-49c0-9696-c3382654fce5'
p598
I7
sS'eca75d59-c910-4956-8e57-794f9f94d766'
p599
I4
sS'4e8a1a51-a5b9-4bad-af5f-d4e7d1749b4f'
p600
I2
sS'04902e02-e296-4978-83a0-3bb1178fa8cc'
p601
I4
sS'35100b55-1181-4bf8-8105-94e91e9c4f32'
p602
I9
sS'27ffd17e-19e7-4670-8bde-f1431fda716e'
p603
I1
sS'869ea631-471d-4b7e-b818-2ed4fefdb50e'
p604
I1
sS'8f39937a-6348-460a-a6b0-8f5a7fe861d1'
p605
I1
sS'415bed2f-ad87-40cc-ab1a-2de9b164ae29'
p606
I5
sS'768e8a6d-73cc-410f-8fd4-0903c256bc05'
p607
I14
sS'a30cdb5c-0428-4a83-8839-5e1479cbe3c8'
p608
I26
sS'bcac8ede-27fa-45fa-9d11-8139f8617a25'
p609
I50
sS'6e80e90e-4b82-42fc-946c-65ba140587e1'
p610
I5
sS'fd2607b7-f893-4f01-9f3c-f664a87651cb'
p611
I10
sS'933b25b7-4f6c-4c70-a1bc-c284fc27219a'
p612
I1
sS'be3f9455-6d12-4f80-b06b-7cae01df08f5'
p613
I3
sS'0b323def-a1d9-4a87-bcfb-7a99a1cf31bf'
p614
I2
sS'74297464-700d-4e6f-87c6-fd5b1dddb5dc'
p615
I16
sS'7e4eafda-d92b-4181-be9a-145377b3d400'
p616
I2
sS'd489b7d0-3e55-41e1-bf88-f9dcad518c88'
p617
I1
sS'b2eb43d4-40f8-4fa1-9565-557b4e0bf58b'
p618
I90
sS'50707e67-f505-472b-a16f-c0357860e0ca'
p619
I117
sS'dd5830af-f27c-412f-a175-3642b61e3b25'
p620
I2
sS'50a44373-17f0-4ddc-ad56-451d88b7bc3b'
p621
I15
sS'2f2df483-b08f-487c-824e-2db16d61f1d3'
p622
I18
sS'0ec77a07-e54d-4fdb-a47e-73ab6be10841'
p623
I6
sS'80a59613-2466-4dad-8126-d0cf5a50702d'
p624
I2
sS'2e6b6370-628a-4825-bab2-0b20eccff8f3'
p625
I23
sS'8f38fdb4-7213-44fd-bd0e-d6ce731b2b18'
p626
I73
sS'd1a54674-76c3-45e2-a66d-080934faf4a2'
p627
I1
sS'869c5543-920d-441b-99e8-7ddf540196aa'
p628
I2
sS'2b2f3ab8-df3d-486d-b15c-13be2e0c9aab'
p629
I5
sS'6bfdb860-14e3-43b8-80f0-0735d06cbfb8'
p630
I1
sS'82da8ec6-e393-4b9b-870d-d65434905107'
p631
I3
sS'2ca330e9-78a2-4ffb-aa79-6e53ae63a35c'
p632
I5
sS'b1792d45-aa59-4a9a-9da3-332e758830f8'
p633
I9
sS'fc5fae08-64e1-408c-8ef3-743aa04fbead'
p634
I2
sS'bd5a20b0-ade3-46be-9dd9-29e7516a82ab'
p635
I12
sS'7f99ec70-a8a6-48db-91bf-973439089286'
p636
I7
sS'5322d60b-9a14-486a-a50a-9bf7aa281585'
p637
I9
sS'1548090b-22bd-4c51-afe8-3e439184386a'
p638
I2
sS'210435ad-3a07-4a2a-87e8-fe34941d480a'
p639
I10
sS'1182b618-df22-4231-96ce-28a9011eabb5'
p640
I2
sS'e1c5124d-a0cf-45c9-b8c6-8efdc2effc4c'
p641
I13
sS'c2fbde02-a6b5-40e6-ad32-c007c1e2fcba'
p642
I1
sS'3378a341-505d-4871-8450-1f599a7a4705'
p643
I2
sS'229bd4a1-d686-48b3-8983-32300325e3ca'
p644
I2
sS'8262ed2b-c1b1-4436-9d71-66f64c8dfbb0'
p645
I32
sS'31e5505f-65ab-4193-afbb-36664beaa027'
p646
I9
sS'983c3dee-a960-4f01-9310-a6e93d12e26f'
p647
I110
sS'5132c594-0d79-4f33-88e6-2bf117d28839'
p648
I2
sS'4549a066-4432-4a72-8be3-1d885ab22e74'
p649
I4
sS'57edd2f2-4740-4fb0-9858-1618e74f8146'
p650
I9
sS'370e817f-5bc9-481f-898c-9c18ccef8c41'
p651
I3
sS'670f1f0d-4d0f-4133-b8a8-5cb14279f850'
p652
I1
sS'f50b3302-d72a-44ae-bf95-99700677c428'
p653
I187
sS'fe6e99c0-6f95-457f-9523-89e329d852cf'
p654
I1
sS'2e349981-f463-4d66-9849-66f9b7142671'
p655
I1
sS'1039004f-1dbd-4b0f-affd-e416816184b2'
p656
I1
sS'91961fd3-8145-4151-b4d3-6a14233719fe'
p657
I2
sS'30ce2069-05f9-494e-a3fd-19e9bd964069'
p658
I12
sS'e743c78a-5f22-4e51-9d9f-5a73517e49a6'
p659
I2
sS'e3ed8be4-6862-4723-a13f-00cef33db5b5'
p660
I28
sS'901fcd7b-d86b-4c6f-9e61-20cce930a024'
p661
I2
sS'0f48080c-67a4-4d1d-be69-0495a640ddb8'
p662
I9
sS'12ac6cc9-dca3-4b5b-a7a7-517170ebd33a'
p663
I29
sS'c4a65171-9d68-4719-a65e-c284ca07b489'
p664
I5
sS'b6874e4a-aedc-44aa-bd7d-4472654508b9'
p665
I2
sS'b1180a03-f49a-466b-a83e-c928c29d82e2'
p666
I24
sS'a72aca1f-1ffc-49d3-8a13-cb1fe650dd02'
p667
I2
sS'bf6f46f4-60c1-4ff6-aff7-5a21a0512556'
p668
I24
sS'bccabe7f-9687-436c-9ecf-ebce4e94401e'
p669
I3
sS'921af574-a1cf-43dd-922b-50b7b84d3ad0'
p670
I25
sS'2e37ffec-54b1-4e2b-8aa0-0ddd995c3a7f'
p671
I3
sS'60c02dca-31d9-4949-916f-fb767e77c67d'
p672
I1
sS'1092571a-9c9d-4f6c-9e7a-14867d6d0918'
p673
I4
sS'0b8b431b-aed1-4fd9-a3cb-0fcfc5b51765'
p674
I10
sS'0d5375c6-8cec-45d9-a6e6-7eff172483ba'
p675
I2
sS'3c3e9669-af07-420e-a6e2-6105a9e28716'
p676
I9
sS'2103fd08-df57-425a-a8ed-d16504a1cae5'
p677
I2
sS'c41f73d7-6cb8-4f4f-994d-6ba37f893096'
p678
I12
sS'56b5ee1d-62c6-4103-b497-92ba87436635'
p679
I22
sS'f86b300c-a103-4b58-aaa0-7161b9e414eb'
p680
I1
sS'2772739b-565a-46da-bed2-4d5df240934b'
p681
I4
sS'41db5ec0-55e5-48b1-b57f-5a1e440b01b9'
p682
I2
sS'33e8f798-a162-4774-a4be-43305ec2115e'
p683
I12
sS'5b35e240-8229-4efe-83b4-b7acb7bbfa12'
p684
I2
sS'ab7fd0cc-1870-403f-9bee-77cc49683a7a'
p685
I1
ssba.