(lp0
ccopy_reg
_reconstructor
p1
(cevernote.edam.type.ttypes
Note
p2
c__builtin__
object
p3
Ntp4
Rp5
(dp6
S'contentHash'
p7
S'\xdd\xf3\xd6\xc47\xe3\x99\xde}/\xc3()\t-\x95'
p8
sS'updated'
p9
I1361508665000
sS'created'
p10
I1357394412000
sS'deleted'
p11
NsS'contentLength'
p12
I612
sS'title'
p13
S'intensify'
p14
sS'notebookGuid'
p15
S'b04a5825-1b8f-4f5d-98dc-34398a0c9089'
p16
sS'content'
p17
S'<?xml version="1.0" encoding="UTF-8" standalone="no"?>\n<!DOCTYPE en-note SYSTEM "http://xml.evernote.com/pub/enml2.dtd">\n<en-note style="word-wrap: break-word; -webkit-nbsp-mode: space; -webkit-line-break: after-white-space;">\n<span style="font-family: Georgia;">In the latter decades of the twentieth century there were intensified efforts to understand and record the abundance of Australian rock art.</span>\n<div><span style="font-family: Georgia;"><br/></span></div>\n<div><span style="font-family: Georgia;">intensify: to increase in degree or strength, or to make something do this.</span></div>\n</en-note>\n'
p18
sS'tagNames'
p19
NsS'updateSequenceNum'
p20
I999
sS'tagGuids'
p21
NsS'active'
p22
I01
sS'attributes'
p23
g1
(cevernote.edam.type.ttypes
NoteAttributes
p24
g3
Ntp25
Rp26
(dp27
S'placeName'
p28
NsS'sourceURL'
p29
NsS'author'
p30
S'suyuxin'
p31
sS'altitude'
p32
F17.83333396911621
sS'shareDate'
p33
NsS'longitude'
p34
F120.12036769
sS'lastEditedBy'
p35
NsS'source'
p36
NsS'applicationData'
p37
NsS'sourceApplication'
p38
NsS'latitude'
p39
F30.26814613857142
sS'contentClass'
p40
NsS'subjectDate'
p41
NsbsS'guid'
p42
S'135238ce-935f-4da0-85b6-ea3eaad550fb'
p43
sS'resources'
p44
Nsbag1
(g2
g3
Ntp45
Rp46
(dp47
g7
S'+A\xc2*$\x14\x89l\x82\xe8\xc7\xb3\xd8\xef\xef\xb9'
p48
sg9
I1361508665000
sg10
I1357393394000
sg11
Nsg12
I434
sg13
S'extent'
p49
sg15
S'b04a5825-1b8f-4f5d-98dc-34398a0c9089'
p50
sg17
S'<?xml version="1.0" encoding="UTF-8" standalone="no"?>\n<!DOCTYPE en-note SYSTEM "http://xml.evernote.com/pub/enml2.dtd">\n<en-note style="word-wrap: break-word; -webkit-nbsp-mode: space; -webkit-line-break: after-white-space;">\nIt\'s two early to access the full extent of damage.\n<div><br/></div>\n<div>extent: <font color="#FF2600">how large, important, or serious something is, especially a problem or injury.</font></div>\n</en-note>\n'
p51
sg19
Nsg20
I1000
sg21
Nsg22
I01
sg23
g1
(g24
g3
Ntp52
Rp53
(dp54
g28
Nsg29
Nsg30
S'suyuxin'
p55
sg32
F17.83333396911621
sg33
Nsg34
F120.12036769
sg35
Nsg36
Nsg37
Nsg38
Nsg39
F30.26814613857142
sg40
Nsg41
Nsbsg42
S'c738a4df-ba7e-458c-b66e-8674c22a231f'
p56
sg44
Nsbag1
(g2
g3
Ntp57
Rp58
(dp59
g7
S'Pl\xa3\x9b\xc0\x12\xdb\x9e\x82\xc8H\x18\xbc`U\xaf'
p60
sg9
I1361508665000
sg10
I1357393174000
sg11
Nsg12
I470
sg13
S'interpretation'
p61
sg15
S'b04a5825-1b8f-4f5d-98dc-34398a0c9089'
p62
sg17
S'<?xml version="1.0" encoding="UTF-8" standalone="no"?>\n<!DOCTYPE en-note SYSTEM "http://xml.evernote.com/pub/enml2.dtd">\n<en-note style="word-wrap: break-word; -webkit-nbsp-mode: space; -webkit-line-break: after-white-space;">\nIt\'s difficult to put an accurate interpretation on the survey result.\n<div><br/></div>\n<div>interpretation: <font color="#FF2600">the way in which someone understand, explain an event, information or someone\'s action.</font></div>\n</en-note>\n'
p63
sg19
Nsg20
I1001
sg21
Nsg22
I01
sg23
g1
(g24
g3
Ntp64
Rp65
(dp66
g28
Nsg29
Nsg30
S'suyuxin'
p67
sg32
F17.83333396911621
sg33
Nsg34
F120.12036769
sg35
Nsg36
Nsg37
Nsg38
Nsg39
F30.26814613857142
sg40
Nsg41
Nsbsg42
S'c32db17a-14e1-4c0a-aece-2ff7f25ed0fe'
p68
sg44
Nsbag1
(g2
g3
Ntp69
Rp70
(dp71
g7
S'\xa4\xf1\x0e\x1e\xee\xcea\xec^\xd9]\xfc[\xf8\xd3\xe2'
p72
sg9
I1361508665000
sg10
I1357390732000
sg11
Nsg12
I443
sg13
S'encounter'
p73
sg15
S'b04a5825-1b8f-4f5d-98dc-34398a0c9089'
p74
sg17
S'<?xml version="1.0" encoding="UTF-8" standalone="no"?>\n<!DOCTYPE en-note SYSTEM "http://xml.evernote.com/pub/enml2.dtd">\n<en-note style="word-wrap: break-word; -webkit-nbsp-mode: space; -webkit-line-break: after-white-space;">\nThe government has encountered strong opposition to its plan to raise income tax.\n<div><br/></div>\n<div>encounter: <font color="#FF2600">experience something, especial problems or opposition.</font></div>\n</en-note>\n'
p75
sg19
Nsg20
I1002
sg21
Nsg22
I01
sg23
g1
(g24
g3
Ntp76
Rp77
(dp78
g28
Nsg29
Nsg30
S'suyuxin'
p79
sg32
F29.14841079711914
sg33
Nsg34
F120.1165759401053
sg35
Nsg36
Nsg37
Nsg38
Nsg39
F30.26524433020626
sg40
Nsg41
Nsbsg42
S'6772bfae-9bfc-4f36-9cfb-84f2b03e6f7e'
p80
sg44
Nsbag1
(g2
g3
Ntp81
Rp82
(dp83
g7
S'\x18\xccT\x03\x12k\xf2X[\xf4\xf8\xd4\xa9]\xea\xce'
p84
sg9
I1361508665000
sg10
I1355987242000
sg11
Nsg12
I439
sg13
S'linchpin'
p85
sg15
S'b04a5825-1b8f-4f5d-98dc-34398a0c9089'
p86
sg17
S'<?xml version="1.0" encoding="UTF-8" standalone="no"?>\n<!DOCTYPE en-note SYSTEM "http://xml.evernote.com/pub/enml2.dtd">\n<en-note style="word-wrap: break-word; -webkit-nbsp-mode: space; -webkit-line-break: after-white-space;">\n<div>the linchpin of something: <font color="#FF2600">the person or thing in a group or system is the most important, because everything depends on them.</font></div>\n<div><br/></div>\n<div><br/></div>\n</en-note>\n'
p87
sg19
Nsg20
I1003
sg21
Nsg22
I01
sg23
g1
(g24
g3
Ntp88
Rp89
(dp90
g28
Nsg29
Nsg30
S'suyuxin'
p91
sg32
F28.57279777526855
sg33
Nsg34
F120.1164797923369
sg35
Nsg36
Nsg37
Nsg38
Nsg39
F30.26522124494091
sg40
Nsg41
Nsbsg42
S'f94e2906-871d-4f41-b590-32a9485ad379'
p92
sg44
Nsbag1
(g2
g3
Ntp93
Rp94
(dp95
g7
S'\x7f\x0e\xba\x90\x1d5<\xdc\xce\x04%p{\x1e\xa8\xf8'
p96
sg9
I1361508665000
sg10
I1355898813000
sg11
Nsg12
I604
sg13
S'taxonomy'
p97
sg15
S'b04a5825-1b8f-4f5d-98dc-34398a0c9089'
p98
sg17
S'<?xml version="1.0" encoding="UTF-8" standalone="no"?>\n<!DOCTYPE en-note SYSTEM "http://xml.evernote.com/pub/enml2.dtd">\n<en-note style="word-wrap: break-word; -webkit-nbsp-mode: space; -webkit-line-break: after-white-space;">\nThere is no generally accepted taxonomy into which all computer networks fits, but two dimensions stand out as important: transmission technology and scale.<br/>\n<div><br/></div>\n<div>taxonomy: <font color="#FF2600">the process or the system of organising things into different groups that show their natural relationships, especially plants or animals</font></div>\n</en-note>\n'
p99
sg19
Nsg20
I1004
sg21
Nsg22
I01
sg23
g1
(g24
g3
Ntp100
Rp101
(dp102
g28
Nsg29
Nsg30
S'suyuxin'
p103
sg32
F27.72597312927246
sg33
Nsg34
F120.1165736099633
sg35
Nsg36
Nsg37
Nsg38
Nsg39
F30.26520863300097
sg40
Nsg41
Nsbsg42
S'9eb2e42c-1b27-4f22-b2b1-7c6d858745ab'
p104
sg44
Nsbag1
(g2
g3
Ntp105
Rp106
(dp107
g7
S'\n=\xd1\x0e\xd5\x8e\xb0\x94\x1fC\x05\x0f\xdc\xc3-\x95'
p108
sg9
I1361508665000
sg10
I1355799089000
sg11
Nsg12
I378
sg13
S'dump'
p109
sg15
S'b04a5825-1b8f-4f5d-98dc-34398a0c9089'
p110
sg17
S'<?xml version="1.0" encoding="UTF-8" standalone="no"?>\n<!DOCTYPE en-note SYSTEM "http://xml.evernote.com/pub/enml2.dtd">\n<en-note style="word-wrap: break-word; -webkit-nbsp-mode: space; -webkit-line-break: after-white-space;">\n<div>Merill dump her suitcase down in the hall</div>\n<div><br/></div>\n<div>dump: to put something somewhere in a careless untidy way.</div>\n</en-note>\n'
p111
sg19
Nsg20
I1005
sg21
Nsg22
I01
sg23
g1
(g24
g3
Ntp112
Rp113
(dp114
g28
Nsg29
Nsg30
S'suyuxin'
p115
sg32
F29.58001899719238
sg33
Nsg34
F120.116477882581
sg35
Nsg36
Nsg37
Nsg38
Nsg39
F30.2652663300213
sg40
Nsg41
Nsbsg42
S'6e273614-561a-4dcb-8238-f8ac0eaada03'
p116
sg44
Nsbag1
(g2
g3
Ntp117
Rp118
(dp119
g7
S'\xb9\x8cf\\\x1c\x88[|\x1f\xc2\xe3\xde\xb9\xbb\xbc\xbd'
p120
sg9
I1361508665000
sg10
I1355723463000
sg11
Nsg12
I481
sg13
S'tertiary'
p121
sg15
S'b04a5825-1b8f-4f5d-98dc-34398a0c9089'
p122
sg17
S'<?xml version="1.0" encoding="UTF-8" standalone="no"?>\n<!DOCTYPE en-note SYSTEM "http://xml.evernote.com/pub/enml2.dtd">\n<en-note style="word-wrap: break-word; -webkit-nbsp-mode: space; -webkit-line-break: after-white-space;">\n<div>Tertiary storage is not crucial to system performance, but it still must be managed.</div>\n<div><br/></div>\nadj: <font color="#FF2600">third in place, degree or order.</font>\n<div><font color="#FF2600"><br/></font></div>\n<div><br/></div>\n</en-note>\n'
p123
sg19
Nsg20
I1006
sg21
Nsg22
I01
sg23
g1
(g24
g3
Ntp124
Rp125
(dp126
g28
Nsg29
Nsg30
S'suyuxin'
p127
sg32
F28.5938663482666
sg33
Nsg34
F120.1164778436309
sg35
Nsg36
Nsg37
Nsg38
Nsg39
F30.26523980931381
sg40
Nsg41
Nsbsg42
S'b47575c7-fcb8-46f4-9907-1fd8c562f9a7'
p128
sg44
Nsbag1
(g2
g3
Ntp129
Rp130
(dp131
g7
S':&\x16\x1b\x1e\xd5,\xf9\xfe\x9f<\xde7AJ\xc8'
p132
sg9
I1361508666000
sg10
I1355711783000
sg11
Nsg12
I386
sg13
S'commodity'
p133
sg15
S'b04a5825-1b8f-4f5d-98dc-34398a0c9089'
p134
sg17
S'<?xml version="1.0" encoding="UTF-8" standalone="no"?>\n<!DOCTYPE en-note SYSTEM "http://xml.evernote.com/pub/enml2.dtd">\n<en-note style="word-wrap: break-word; -webkit-nbsp-mode: space; -webkit-line-break: after-white-space;">\n<div>commodity prices fell sharply.</div>\n<div><br/></div>\n<div>commodity: <font color="#FF2600">a production that is brought and sold</font></div>\n</en-note>\n'
p135
sg19
Nsg20
I1007
sg21
Nsg22
I01
sg23
g1
(g24
g3
Ntp136
Rp137
(dp138
g28
Nsg29
Nsg30
S'suyuxin'
p139
sg32
F28.6336555480957
sg33
Nsg34
F120.1165144878316
sg35
Nsg36
Nsg37
Nsg38
Nsg39
F30.26528307934346
sg40
Nsg41
Nsbsg42
S'4c117f94-c26b-4088-99b5-f0ea5d7b2c05'
p140
sg44
Nsbag1
(g2
g3
Ntp141
Rp142
(dp143
g7
S'2\xe7\x0b?\x87\xecH\xde\xda\x7fvs\x04\x1c\xb8}'
p144
sg9
I1361508666000
sg10
I1354093764000
sg11
Nsg12
I461
sg13
S'concrete'
p145
sg15
S'b04a5825-1b8f-4f5d-98dc-34398a0c9089'
p146
sg17
S'<?xml version="1.0" encoding="UTF-8" standalone="no"?>\n<!DOCTYPE en-note SYSTEM "http://xml.evernote.com/pub/enml2.dtd">\n<en-note style="word-wrap: break-word; -webkit-nbsp-mode: space; -webkit-line-break: after-white-space;">\nThe definition of this term &quot;clustering&quot; is not concrete.\n<div><br/></div>\n<div><font color="#FF2600">concrete: definite and specific</font></div>\n<div><br/></div>\n<div>concrete evidence, concrete proposal.</div>\n</en-note>\n'
p147
sg19
Nsg20
I1008
sg21
Nsg22
I01
sg23
g1
(g24
g3
Ntp148
Rp149
(dp150
g28
Nsg29
Nsg30
S'suyuxin'
p151
sg32
F30.0
sg33
Nsg34
F120.1164680125
sg35
Nsg36
Nsg37
Nsg38
Nsg39
F30.26525924749998
sg40
Nsg41
Nsbsg42
S'4897c859-8176-4a80-8d75-8e48acc1f354'
p152
sg44
Nsbag1
(g2
g3
Ntp153
Rp154
(dp155
g7
S'Y\xff\xe2\tEP.X\xbb\x9cf\xc9\xbe\xc5 .'
p156
sg9
I1361508666000
sg10
I1354093227000
sg11
Nsg12
I589
sg13
S'chassis'
p157
sg15
S'b04a5825-1b8f-4f5d-98dc-34398a0c9089'
p158
sg17
S'<?xml version="1.0" encoding="UTF-8" standalone="no"?>\n<!DOCTYPE en-note SYSTEM "http://xml.evernote.com/pub/enml2.dtd">\n<en-note style="word-wrap: break-word; -webkit-nbsp-mode: space; -webkit-line-break: after-white-space;">\n<div>Finally, balde-server is a recent development in which multiple processor board, I/O board and networking board are placed in the same chassis.</div>\n<div><br/></div>\n<div><font color="#FF2600">chassis: the frame on which the body, engine and wheel etc of a vehicle are built.</font><br/></div>\n<div><br/></div>\n<div><br/></div>\n<div><br/></div>\n</en-note>\n'
p159
sg19
Nsg20
I1009
sg21
Nsg22
I01
sg23
g1
(g24
g3
Ntp160
Rp161
(dp162
g28
Nsg29
Nsg30
S'suyuxin'
p163
sg32
F30.0
sg33
Nsg34
F120.1164680125
sg35
Nsg36
Nsg37
Nsg38
Nsg39
F30.26525924749999
sg40
Nsg41
Nsbsg42
S'4c2b26fc-fe08-4b97-8da0-49b154c43fe2'
p164
sg44
Nsbag1
(g2
g3
Ntp165
Rp166
(dp167
g7
S'_\xfc\x88\xc8n\xbdC\xe6\xe55\x04Op\xae\xa2,'
p168
sg9
I1351505057000
sg10
I1351504905000
sg11
Nsg12
I382
sg13
S'Contrary to what you might expect'
p169
sg15
S'b04a5825-1b8f-4f5d-98dc-34398a0c9089'
p170
sg17
S'<?xml version="1.0" encoding="UTF-8" standalone="no"?>\n<!DOCTYPE en-note SYSTEM "http://xml.evernote.com/pub/enml2.dtd">\n<en-note style="word-wrap: break-word; -webkit-nbsp-mode: space; -webkit-line-break: after-white-space;">\n<font color="#FF2600">Contrary to what you might expect</font>, incorrect algorithms can sometimes be useful, if we can control the error rate.\n</en-note>\n'
p171
sg19
Nsg20
I1010
sg21
Nsg22
I01
sg23
g1
(g24
g3
Ntp172
Rp173
(dp174
g28
Nsg29
Nsg30
S'suyuxin'
p175
sg32
Nsg33
Nsg34
Nsg35
Nsg36
Nsg37
Nsg38
Nsg39
Nsg40
Nsg41
Nsbsg42
S'44ed5681-7a73-4c5b-902e-7f94e7a03be9'
p176
sg44
Nsbag1
(g2
g3
Ntp177
Rp178
(dp179
g7
S'\xe5\x04;g\xe7\x18\x04\x1a\xed3\xb4\xd9#\x19\xffB'
p180
sg9
I1355408607000
sg10
I1350304942000
sg11
Nsg12
I507
sg13
S'deter'
p181
sg15
S'b04a5825-1b8f-4f5d-98dc-34398a0c9089'
p182
sg17
S'<?xml version="1.0" encoding="UTF-8" standalone="no"?>\n<!DOCTYPE en-note SYSTEM "http://xml.evernote.com/pub/enml2.dtd">\n<en-note style="word-wrap: break-word; -webkit-nbsp-mode: space; -webkit-line-break: after-white-space;">\n<div>The company\'s financial difficulties have deterred potential investors.\xc2\xa0</div>\n<div><br/></div>\n<div><br/></div>\n<div><font color="#FF2600">deter: to stop someone from doing something, by making them realise it will be difficult or have bad results.\xc2\xa0</font></div>\n</en-note>\n'
p183
sg19
Nsg20
I1011
sg21
Nsg22
I01
sg23
g1
(g24
g3
Ntp184
Rp185
(dp186
g28
Nsg29
Nsg30
S'suyuxin'
p187
sg32
Nsg33
Nsg34
Nsg35
Nsg36
Nsg37
Nsg38
Nsg39
Nsg40
Nsg41
Nsbsg42
S'912f950e-1aaf-47cf-8cdd-301d8b2a1565'
p188
sg44
Nsbag1
(g2
g3
Ntp189
Rp190
(dp191
g7
S'6\x0fv\xc8[+\xae\xed\xea{4\xcbN\\g\xe2'
p192
sg9
I1355408615000
sg10
I1350304621000
sg11
Nsg12
I643
sg13
S'monopoly'
p193
sg15
S'b04a5825-1b8f-4f5d-98dc-34398a0c9089'
p194
sg17
S'<?xml version="1.0" encoding="UTF-8" standalone="no"?>\n<!DOCTYPE en-note SYSTEM "http://xml.evernote.com/pub/enml2.dtd">\n<en-note style="word-wrap: break-word; -webkit-nbsp-mode: space; -webkit-line-break: after-white-space;">\n<div>they are demanding an end to the Communist Party\'s monopoly of power.\xc2\xa0</div>\n<div><br/></div>\n<div><br/></div>\n<div><br/></div>\n<div><font color="#FF2600">monopoly: if a company or a government have a monopoly of a business or political activity, they have complete control of it, so that other company or organisation can not complete with them.</font></div>\n<div><br/></div>\n<div>monopoly of</div>\n</en-note>\n'
p195
sg19
Nsg20
I1012
sg21
Nsg22
I01
sg23
g1
(g24
g3
Ntp196
Rp197
(dp198
g28
Nsg29
Nsg30
S'suyuxin'
p199
sg32
Nsg33
Nsg34
Nsg35
Nsg36
Nsg37
Nsg38
Nsg39
Nsg40
Nsg41
Nsbsg42
S'37cd19f3-6fdf-4640-a45f-d984990a5c36'
p200
sg44
Nsbag1
(g2
g3
Ntp201
Rp202
(dp203
g7
S'\xe2\xba\xc2\xe0\xea\x1a6\x10\x15\x84\x83\xc5\x93z\x8a\x1a'
p204
sg9
I1355408620000
sg10
I1350304478000
sg11
Nsg12
I465
sg13
S'albeit'
p205
sg15
S'b04a5825-1b8f-4f5d-98dc-34398a0c9089'
p206
sg17
S'<?xml version="1.0" encoding="UTF-8" standalone="no"?>\n<!DOCTYPE en-note SYSTEM "http://xml.evernote.com/pub/enml2.dtd">\n<en-note style="word-wrap: break-word; -webkit-nbsp-mode: space; -webkit-line-break: after-white-space;">\n<div>He accepted the job, albeit with some hesitation.</div>\n<div><br/></div>\n<div><font color="#FF2600">albeit: conj: \xc2\xa0used to add word or information to reduce the force or importance of what you have just said.</font></div>\n</en-note>\n'
p207
sg19
Nsg20
I1013
sg21
Nsg22
I01
sg23
g1
(g24
g3
Ntp208
Rp209
(dp210
g28
Nsg29
Nsg30
S'suyuxin'
p211
sg32
Nsg33
Nsg34
Nsg35
Nsg36
Nsg37
Nsg38
Nsg39
Nsg40
Nsg41
Nsbsg42
S'8d7f513b-cfc5-4a57-8529-d2ffabfa5e02'
p212
sg44
Nsbag1
(g2
g3
Ntp213
Rp214
(dp215
g7
S'\x9a\xcfVC\xf4\xe1h\xd8A\x0c\x19\xe5\x07\xca\x1a\xad'
p216
sg9
I1355408596000
sg10
I1350303894000
sg11
Nsg12
I559
sg13
S'tempt'
p217
sg15
S'b04a5825-1b8f-4f5d-98dc-34398a0c9089'
p218
sg17
S'<?xml version="1.0" encoding="UTF-8" standalone="no"?>\n<!DOCTYPE en-note SYSTEM "http://xml.evernote.com/pub/enml2.dtd">\n<en-note style="word-wrap: break-word; -webkit-nbsp-mode: space; -webkit-line-break: after-white-space;">\n<div>The new program is design to tempt the young into studying engineering.\xc2\xa0</div>\n<div><br/></div>\n<div><br/></div>\n<div><font color="#FF2600">tempt: to try to persuade someone to do something by making it seems attractive.</font></div>\n<div><br/></div>\n<div><br/></div>\n<div>tempt somebody into doing something.</div>\n</en-note>\n'
p219
sg19
Nsg20
I1014
sg21
Nsg22
I01
sg23
g1
(g24
g3
Ntp220
Rp221
(dp222
g28
Nsg29
Nsg30
S'suyuxin'
p223
sg32
Nsg33
Nsg34
Nsg35
Nsg36
Nsg37
Nsg38
Nsg39
Nsg40
Nsg41
Nsbsg42
S'ae323568-44d0-4a16-97fb-b9fc92cc11b2'
p224
sg44
Nsbag1
(g2
g3
Ntp225
Rp226
(dp227
g7
S'\xc03\x0f{j\xef\x86>v\x12\x89\xc67=5d'
p228
sg9
I1355408634000
sg10
I1350303679000
sg11
Nsg12
I433
sg13
S'haul'
p229
sg15
S'b04a5825-1b8f-4f5d-98dc-34398a0c9089'
p230
sg17
S'<?xml version="1.0" encoding="UTF-8" standalone="no"?>\n<!DOCTYPE en-note SYSTEM "http://xml.evernote.com/pub/enml2.dtd">\n<en-note style="word-wrap: break-word; -webkit-nbsp-mode: space; -webkit-line-break: after-white-space;">\n<div>The stream locomotive which haul the train.</div>\n<div><br/></div>\n<div><br/></div>\n<div><font color="#FF2600">haul: \xc2\xa0to pull something heavy with a continuous steady movement.</font></div>\n</en-note>\n'
p231
sg19
Nsg20
I1015
sg21
Nsg22
I01
sg23
g1
(g24
g3
Ntp232
Rp233
(dp234
g28
Nsg29
Nsg30
S'suyuxin'
p235
sg32
Nsg33
Nsg34
Nsg35
Nsg36
Nsg37
Nsg38
Nsg39
Nsg40
Nsg41
Nsbsg42
S'4b38a317-ac55-41e0-90fa-fad4fab20fa4'
p236
sg44
Nsbag1
(g2
g3
Ntp237
Rp238
(dp239
g7
S'\xde\x82\x9f\x19\xaeFI\xd8\xbd\xa7loA\x88"/'
p240
sg9
I1355409071000
sg10
I1350303583000
sg11
Nsg12
I383
sg13
S'crane'
p241
sg15
S'b04a5825-1b8f-4f5d-98dc-34398a0c9089'
p242
sg17
S'<?xml version="1.0" encoding="UTF-8" standalone="no"?>\n<!DOCTYPE en-note SYSTEM "http://xml.evernote.com/pub/enml2.dtd">\n<en-note style="word-wrap: break-word; -webkit-nbsp-mode: space; -webkit-line-break: after-white-space;">\n<div><br/></div>\n<div><br/></div>\n<div><font color="#FF2600">crane: a large tall machine used by builders for lifting heavy thing.\xc2\xa0</font></div>\n</en-note>\n'
p243
sg19
Nsg20
I1016
sg21
Nsg22
I01
sg23
g1
(g24
g3
Ntp244
Rp245
(dp246
g28
Nsg29
Nsg30
S'suyuxin'
p247
sg32
Nsg33
Nsg34
Nsg35
Nsg36
Nsg37
Nsg38
Nsg39
Nsg40
Nsg41
Nsbsg42
S'b996c6ec-2415-4ffb-b9f8-93dd59272fd8'
p248
sg44
Nsbag1
(g2
g3
Ntp249
Rp250
(dp251
g7
S'\xa7\x9aW\xe2\xb7\xf7\xf1$1!\\ox\xf0\x10_'
p252
sg9
I1355409012000
sg10
I1350303419000
sg11
Nsg12
I447
sg13
S'friction'
p253
sg15
S'b04a5825-1b8f-4f5d-98dc-34398a0c9089'
p254
sg17
S'<?xml version="1.0" encoding="UTF-8" standalone="no"?>\n<!DOCTYPE en-note SYSTEM "http://xml.evernote.com/pub/enml2.dtd">\n<en-note style="word-wrap: break-word; -webkit-nbsp-mode: space; -webkit-line-break: after-white-space;">\n<div>Having my mother living with us causes friction at home.</div>\n<div><br/></div>\n<div><br/></div>\n<div><font color="#FF2600">friction: disagreement, annoying, or unfriendliness between people</font></div>\n</en-note>\n'
p255
sg19
Nsg20
I1017
sg21
Nsg22
I01
sg23
g1
(g24
g3
Ntp256
Rp257
(dp258
g28
Nsg29
Nsg30
S'suyuxin'
p259
sg32
Nsg33
Nsg34
Nsg35
Nsg36
Nsg37
Nsg38
Nsg39
Nsg40
Nsg41
Nsbsg42
S'abd3c789-4a49-4dde-94e7-49eafa552ff6'
p260
sg44
Nsbag1
(g2
g3
Ntp261
Rp262
(dp263
g7
S'\xd9 i9\xe9\x9dM\x11g\xc0\n\xce~uX\t'
p264
sg9
I1355409007000
sg10
I1350303261000
sg11
Nsg12
I467
sg13
S'quota'
p265
sg15
S'b04a5825-1b8f-4f5d-98dc-34398a0c9089'
p266
sg17
S'<?xml version="1.0" encoding="UTF-8" standalone="no"?>\n<!DOCTYPE en-note SYSTEM "http://xml.evernote.com/pub/enml2.dtd">\n<en-note style="word-wrap: break-word; -webkit-nbsp-mode: space; -webkit-line-break: after-white-space;">\n<div>The government has imposed quotas on the export of timber</div>\n<div><br/></div>\n<div><font color="#FF2600">quota: an official limit on the number or amount of something that is allowed in a particular period.\xc2\xa0</font></div>\n</en-note>\n'
p267
sg19
Nsg20
I1018
sg21
Nsg22
I01
sg23
g1
(g24
g3
Ntp268
Rp269
(dp270
g28
Nsg29
Nsg30
S'suyuxin'
p271
sg32
Nsg33
Nsg34
Nsg35
Nsg36
Nsg37
Nsg38
Nsg39
Nsg40
Nsg41
Nsbsg42
S'8c1e2e92-f963-42ee-aae6-eced95a4ee29'
p272
sg44
Nsbag1
(g2
g3
Ntp273
Rp274
(dp275
g7
S"\nS\xa8\xd4n=1$!,\xe6\x11h\xc2\x16'"
p276
sg9
I1355408998000
sg10
I1350303079000
sg11
Nsg12
I441
sg13
S'tariff'
p277
sg15
S'b04a5825-1b8f-4f5d-98dc-34398a0c9089'
p278
sg17
S'<?xml version="1.0" encoding="UTF-8" standalone="no"?>\n<!DOCTYPE en-note SYSTEM "http://xml.evernote.com/pub/enml2.dtd">\n<en-note style="word-wrap: break-word; -webkit-nbsp-mode: space; -webkit-line-break: after-white-space;">\n<div>the government may impose tariff on imports.</div>\n<div><br/></div>\n<div><br/></div>\n<div><font color="#FF2600">tariff: \xc2\xa0a tax on good coming into a country, or going out of a country.</font></div>\n</en-note>\n'
p279
sg19
Nsg20
I1019
sg21
Nsg22
I01
sg23
g1
(g24
g3
Ntp280
Rp281
(dp282
g28
Nsg29
Nsg30
S'suyuxin'
p283
sg32
Nsg33
Nsg34
Nsg35
Nsg36
Nsg37
Nsg38
Nsg39
Nsg40
Nsg41
Nsbsg42
S'538fdc82-dd72-4fb9-a576-060340002f21'
p284
sg44
Nsbag1
(g2
g3
Ntp285
Rp286
(dp287
g7
S';\xd2\xafiR\xdbL(\x9eZ\x93@\xf4}\xabc'
p288
sg9
I1355408992000
sg10
I1350300957000
sg11
Nsg12
I398
sg13
S'bother'
p289
sg15
S'b04a5825-1b8f-4f5d-98dc-34398a0c9089'
p290
sg17
S'<?xml version="1.0" encoding="UTF-8" standalone="no"?>\n<!DOCTYPE en-note SYSTEM "http://xml.evernote.com/pub/enml2.dtd">\n<en-note style="word-wrap: break-word; -webkit-nbsp-mode: space; -webkit-line-break: after-white-space;">\nNo gain is too slight to bother with<br/>\n<div><br/></div>\n<div><br/></div>\n<div><font color="#FF2600">bother: to make the effort to do something.</font></div>\n</en-note>\n'
p291
sg19
Nsg20
I1020
sg21
Nsg22
I01
sg23
g1
(g24
g3
Ntp292
Rp293
(dp294
g28
Nsg29
Nsg30
S'suyuxin'
p295
sg32
Nsg33
Nsg34
Nsg35
Nsg36
Nsg37
Nsg38
Nsg39
Nsg40
Nsg41
Nsbsg42
S'0395efa2-de36-498c-a19e-16190ae8af1a'
p296
sg44
Nsbag1
(g2
g3
Ntp297
Rp298
(dp299
g7
S'\x16,\x05\x8c<\xed\x98N\xea\xe3C\x02\xf8\xb9"('
p300
sg9
I1350300941000
sg10
I1350300744000
sg11
Nsg12
I556
sg13
S'A lot of their work comes down to measurement --'
p301
sg15
S'b04a5825-1b8f-4f5d-98dc-34398a0c9089'
p302
sg17
S'<?xml version="1.0" encoding="UTF-8" standalone="no"?>\n<!DOCTYPE en-note SYSTEM "http://xml.evernote.com/pub/enml2.dtd">\n<en-note style="word-wrap: break-word; -webkit-nbsp-mode: space; -webkit-line-break: after-white-space;">\nA lot of their work comes down to measurement -- everything from the exact angles of a swimmer\'s dive to the second-by-second power output of a cyclist.\n<div><br/></div>\n<div><br/></div>\n<div>come down to : if a complicated situation or problem comes down to something, that is the single most important thing.\xc2\xa0</div>\n</en-note>\n'
p303
sg19
Nsg20
I1021
sg21
Nsg22
I01
sg23
g1
(g24
g3
Ntp304
Rp305
(dp306
g28
Nsg29
Nsg30
S'suyuxin'
p307
sg32
Nsg33
Nsg34
Nsg35
Nsg36
Nsg37
Nsg38
Nsg39
Nsg40
Nsg41
Nsbsg42
S'344996be-2b6b-4ccb-be6a-625098d7eff5'
p308
sg44
Nsbag1
(g2
g3
Ntp309
Rp310
(dp311
g7
S':\xee\xbd&\x01d\xff\xa8\xaa\xa7\x82s3pU\x0e'
p312
sg9
I1355408983000
sg10
I1350300562000
sg11
Nsg12
I473
sg13
S'endurance'
p313
sg15
S'b04a5825-1b8f-4f5d-98dc-34398a0c9089'
p314
sg17
S'<?xml version="1.0" encoding="UTF-8" standalone="no"?>\n<!DOCTYPE en-note SYSTEM "http://xml.evernote.com/pub/enml2.dtd">\n<en-note style="word-wrap: break-word; -webkit-nbsp-mode: space; -webkit-line-break: after-white-space;">\n<div>She was pushed beyond the power of her endurance.</div>\n<div><br/></div>\n<div><br/></div>\n<div><font color="#FF2600">endurance: the ability to continue doing something difficult or painful over a long period of time.</font></div>\n</en-note>\n'
p315
sg19
Nsg20
I1022
sg21
Nsg22
I01
sg23
g1
(g24
g3
Ntp316
Rp317
(dp318
g28
Nsg29
Nsg30
S'suyuxin'
p319
sg32
Nsg33
Nsg34
Nsg35
Nsg36
Nsg37
Nsg38
Nsg39
Nsg40
Nsg41
Nsbsg42
S'79398c22-d1e2-487a-9cd0-74ac71b34280'
p320
sg44
Nsbag1
(g2
g3
Ntp321
Rp322
(dp323
g7
S'l\xf7\xf1\xac\xcbS\xafc<q_/\xb60\xad\t'
p324
sg9
I1355408976000
sg10
I1350300441000
sg11
Nsg12
I387
sg13
S'unveil'
p325
sg15
S'b04a5825-1b8f-4f5d-98dc-34398a0c9089'
p326
sg17
S'<?xml version="1.0" encoding="UTF-8" standalone="no"?>\n<!DOCTYPE en-note SYSTEM "http://xml.evernote.com/pub/enml2.dtd">\n<en-note style="word-wrap: break-word; -webkit-nbsp-mode: space; -webkit-line-break: after-white-space;">\n<div><br/></div>\n<div><br/></div>\n<div>unveil: <font color="#1C38FF">to show or tell people about a product or plan for the first time.</font></div>\n</en-note>\n'
p327
sg19
Nsg20
I1023
sg21
Nsg22
I01
sg23
g1
(g24
g3
Ntp328
Rp329
(dp330
g28
Nsg29
Nsg30
S'suyuxin'
p331
sg32
Nsg33
Nsg34
Nsg35
Nsg36
Nsg37
Nsg38
Nsg39
Nsg40
Nsg41
Nsbsg42
S'e67b061b-16ac-4560-bd1a-c69dc75349d2'
p332
sg44
Nsbag1
(g2
g3
Ntp333
Rp334
(dp335
g7
S'\xa9,\x1d\x07\x1b(\xd6\xcd\xadz\xc0\x82A\x0b\x05l'
p336
sg9
I1350300228000
sg10
I1350300207000
sg11
Nsg12
I272
sg13
S'Using data is a complex business.'
p337
sg15
S'b04a5825-1b8f-4f5d-98dc-34398a0c9089'
p338
sg17
S'<?xml version="1.0" encoding="UTF-8" standalone="no"?>\n<!DOCTYPE en-note SYSTEM "http://xml.evernote.com/pub/enml2.dtd">\n<en-note style="word-wrap: break-word; -webkit-nbsp-mode: space; -webkit-line-break: after-white-space;">\nUsing data is a complex business.\n</en-note>\n'
p339
sg19
Nsg20
I1024
sg21
Nsg22
I01
sg23
g1
(g24
g3
Ntp340
Rp341
(dp342
g28
Nsg29
Nsg30
S'suyuxin'
p343
sg32
Nsg33
Nsg34
Nsg35
Nsg36
Nsg37
Nsg38
Nsg39
Nsg40
Nsg41
Nsbsg42
S'ad4a8243-0898-46b6-bec6-2a59003fd48b'
p344
sg44
Nsbag1
(g2
g3
Ntp345
Rp346
(dp347
g7
S'S\xd4s;\x81\x01;c}\x81\x02\xe3Q\x88\x01]'
p348
sg9
I1355408940000
sg10
I1350300133000
sg11
Nsg12
I344
sg13
S'saliva'
p349
sg15
S'b04a5825-1b8f-4f5d-98dc-34398a0c9089'
p350
sg17
S'<?xml version="1.0" encoding="UTF-8" standalone="no"?>\n<!DOCTYPE en-note SYSTEM "http://xml.evernote.com/pub/enml2.dtd">\n<en-note style="word-wrap: break-word; -webkit-nbsp-mode: space; -webkit-line-break: after-white-space;">\n<div>saliva: <font color="#FF2600">the liquid that is produced naturally in your mouth.</font><br/></div>\n</en-note>\n'
p351
sg19
Nsg20
I1025
sg21
Nsg22
I01
sg23
g1
(g24
g3
Ntp352
Rp353
(dp354
g28
Nsg29
Nsg30
S'suyuxin'
p355
sg32
Nsg33
Nsg34
Nsg35
Nsg36
Nsg37
Nsg38
Nsg39
Nsg40
Nsg41
Nsbsg42
S'f3b43c5e-9263-4a51-94a7-900f44407efc'
p356
sg44
Nsbag1
(g2
g3
Ntp357
Rp358
(dp359
g7
S'?\xc7\xc1\x1aa\xe8\xdd\r\xab\x07m\x98T\xb3ln'
p360
sg9
I1355408914000
sg10
I1350299994000
sg11
Nsg12
I399
sg13
S'obtrusive'
p361
sg15
S'b04a5825-1b8f-4f5d-98dc-34398a0c9089'
p362
sg17
S'<?xml version="1.0" encoding="UTF-8" standalone="no"?>\n<!DOCTYPE en-note SYSTEM "http://xml.evernote.com/pub/enml2.dtd">\n<en-note style="word-wrap: break-word; -webkit-nbsp-mode: space; -webkit-line-break: after-white-space;">\n<div>The waiter is friendly and not obtrusive.</div>\n<div><br/></div>\n<div>obtrusive: \xc2\xa0<font color="#FF2600">noticeable in unpleasant or annoy way.</font></div>\n</en-note>\n'
p363
sg19
Nsg20
I1026
sg21
Nsg22
I01
sg23
g1
(g24
g3
Ntp364
Rp365
(dp366
g28
Nsg29
Nsg30
S'suyuxin'
p367
sg32
Nsg33
Nsg34
Nsg35
Nsg36
Nsg37
Nsg38
Nsg39
Nsg40
Nsg41
Nsbsg42
S'4e69e052-51a8-4a16-b9a5-976b4a807ca5'
p368
sg44
Nsbag1
(g2
g3
Ntp369
Rp370
(dp371
g7
S'\xad/\xdcpB\xaa\xc3F\x8c\xf3\xf8[k\x9d\x99-'
p372
sg9
I1355408909000
sg10
I1350299745000
sg11
Nsg12
I492
sg13
S'tweak'
p373
sg15
S'b04a5825-1b8f-4f5d-98dc-34398a0c9089'
p374
sg17
S'<?xml version="1.0" encoding="UTF-8" standalone="no"?>\n<!DOCTYPE en-note SYSTEM "http://xml.evernote.com/pub/enml2.dtd">\n<en-note style="word-wrap: break-word; -webkit-nbsp-mode: space; -webkit-line-break: after-white-space;">\n<div>Maybe you should tweak some sentences before you send your report.</div>\n<div><br/></div>\n<div><br/></div>\n<div>tweak: <font color="#FF2600">to make a small change to a machine, vehicle \xc2\xa0or systems in order to improve the way it works.</font></div>\n</en-note>\n'
p375
sg19
Nsg20
I1027
sg21
Nsg22
I01
sg23
g1
(g24
g3
Ntp376
Rp377
(dp378
g28
Nsg29
Nsg30
S'suyuxin'
p379
sg32
Nsg33
Nsg34
Nsg35
Nsg36
Nsg37
Nsg38
Nsg39
Nsg40
Nsg41
Nsbsg42
S'090c4c29-a255-4dcb-8ea2-de12355539d6'
p380
sg44
Nsbag1
(g2
g3
Ntp381
Rp382
(dp383
g7
S'\xa1\x18\x12%K\x16\x19h\xe3\xea\x82\xbb\xce\xf5\xdc\xa5'
p384
sg9
I1355408904000
sg10
I1350299575000
sg11
Nsg12
I514
sg13
S'ethereal'
p385
sg15
S'b04a5825-1b8f-4f5d-98dc-34398a0c9089'
p386
sg17
S'<?xml version="1.0" encoding="UTF-8" standalone="no"?>\n<!DOCTYPE en-note SYSTEM "http://xml.evernote.com/pub/enml2.dtd">\n<en-note style="word-wrap: break-word; -webkit-nbsp-mode: space; -webkit-line-break: after-white-space;">\n<div>We can\'t waste our time looking at ethereal scientific questions that don\'t help the coach work with an athlete and improve performance.</div>\n<div><br/></div>\n<div>ethereal: \xc2\xa0<font color="#FF2600">very delicate and light, in a way that does not seem real.\xc2\xa0</font></div>\n</en-note>\n'
p387
sg19
Nsg20
I1028
sg21
Nsg22
I01
sg23
g1
(g24
g3
Ntp388
Rp389
(dp390
g28
Nsg29
Nsg30
S'suyuxin'
p391
sg32
Nsg33
Nsg34
Nsg35
Nsg36
Nsg37
Nsg38
Nsg39
Nsg40
Nsg41
Nsbsg42
S'fd7cfcb6-ca49-4a8f-ae5e-47786b6ca386'
p392
sg44
Nsbag1
(g2
g3
Ntp393
Rp394
(dp395
g7
S'\x89xk\x00\x89D\x8c\x9cd\x93.\xc1\x91;\xb7F'
p396
sg9
I1355408899000
sg10
I1350299348000
sg11
Nsg12
I475
sg13
S'pro'
p397
sg15
S'b04a5825-1b8f-4f5d-98dc-34398a0c9089'
p398
sg17
S'<?xml version="1.0" encoding="UTF-8" standalone="no"?>\n<!DOCTYPE en-note SYSTEM "http://xml.evernote.com/pub/enml2.dtd">\n<en-note style="word-wrap: break-word; -webkit-nbsp-mode: space; -webkit-line-break: after-white-space;">\n<div>There is a small gap between top amateurs and pros in golf.</div>\n<div><br/></div>\n<div>pro: <font color="#1746FF">some people who is paid to do something, especially play a sport; that other people do it for pleasure.</font></div>\n</en-note>\n'
p399
sg19
Nsg20
I1029
sg21
Nsg22
I01
sg23
g1
(g24
g3
Ntp400
Rp401
(dp402
g28
Nsg29
Nsg30
S'suyuxin'
p403
sg32
Nsg33
Nsg34
Nsg35
Nsg36
Nsg37
Nsg38
Nsg39
Nsg40
Nsg41
Nsbsg42
S'da7237e0-ce37-4dc7-bdd5-bbf5ad9951ed'
p404
sg44
Nsbag1
(g2
g3
Ntp405
Rp406
(dp407
g7
S'>\x92\xbc\xc4\x84\xc6\xf4$~m(\xb3\xb3\xad\xa0\xe8'
p408
sg9
I1355408892000
sg10
I1350299068000
sg11
Nsg12
I419
sg13
S'demolish'
p409
sg15
S'b04a5825-1b8f-4f5d-98dc-34398a0c9089'
p410
sg17
S'<?xml version="1.0" encoding="UTF-8" standalone="no"?>\n<!DOCTYPE en-note SYSTEM "http://xml.evernote.com/pub/enml2.dtd">\n<en-note style="word-wrap: break-word; -webkit-nbsp-mode: space; -webkit-line-break: after-white-space;">\nthe entire east wing of the building was demolished in the fire.\n<div><br/></div>\n<div><br/></div>\n<div>demolish: <font color="#2A40FF">to complete destroy a building.</font></div>\n</en-note>\n'
p411
sg19
Nsg20
I1030
sg21
Nsg22
I01
sg23
g1
(g24
g3
Ntp412
Rp413
(dp414
g28
Nsg29
Nsg30
S'suyuxin'
p415
sg32
Nsg33
Nsg34
Nsg35
Nsg36
Nsg37
Nsg38
Nsg39
Nsg40
Nsg41
Nsbsg42
S'8fd46109-621a-4123-b652-5516f030384d'
p416
sg44
Nsbag1
(g2
g3
Ntp417
Rp418
(dp419
g7
S'\xddw\x0b\x93\xe3\x03\xfb\xa1\x14\xc9\xa7\t\x90{\xa3m'
p420
sg9
I1355408886000
sg10
I1348658068000
sg11
Nsg12
I505
sg13
S"China's revolutionary leader Mao zedong, summoned his top military, political co"
p421
sg15
S'b04a5825-1b8f-4f5d-98dc-34398a0c9089'
p422
sg17
S'<?xml version="1.0" encoding="UTF-8" standalone="no"?>\n<!DOCTYPE en-note SYSTEM "http://xml.evernote.com/pub/enml2.dtd">\n<en-note style="word-wrap: break-word; -webkit-nbsp-mode: space; -webkit-line-break: after-white-space;">\nChina\'s revolutionary leader Mao zedong, <font color="#E30000">summoned</font> his top military, political commanders to meet with him in Beijing.\n<div><br/></div>\n<div><br/></div>\n<div>summon: <font color="#1237FF">\xc2\xa0to order someone to come to a place.</font></div>\n</en-note>\n'
p423
sg19
Nsg20
I1031
sg21
Nsg22
I01
sg23
g1
(g24
g3
Ntp424
Rp425
(dp426
g28
Nsg29
Nsg30
S'suyuxin'
p427
sg32
Nsg33
Nsg34
Nsg35
Nsg36
Nsg37
Nsg38
Nsg39
Nsg40
Nsg41
Nsbsg42
S'cff7e876-e1b9-4920-94a7-4bb09fb75afd'
p428
sg44
Nsbag1
(g2
g3
Ntp429
Rp430
(dp431
g7
S'\x00#\xd1J*\x83\xe4\xcfhC\x08<\xa1\xe4g)'
p432
sg9
I1355408877000
sg10
I1348656985000
sg11
Nsg12
I473
sg13
S'It holds the United States has a obligation to spread its values to every part o'
p433
sg15
S'b04a5825-1b8f-4f5d-98dc-34398a0c9089'
p434
sg17
S'<?xml version="1.0" encoding="UTF-8" standalone="no"?>\n<!DOCTYPE en-note SYSTEM "http://xml.evernote.com/pub/enml2.dtd">\n<en-note style="word-wrap: break-word; -webkit-nbsp-mode: space; -webkit-line-break: after-white-space;">\nIt holds the United States has a obligation to spread its values to every part of the world.\n<div><br/></div>\n<div><br/></div>\n<div>obligation: \xc2\xa0<font color="#FF281F">a moral or legal duty to do something</font></div>\n<div><br/></div>\n</en-note>\n'
p435
sg19
Nsg20
I1032
sg21
Nsg22
I01
sg23
g1
(g24
g3
Ntp436
Rp437
(dp438
g28
Nsg29
Nsg30
S'suyuxin'
p439
sg32
Nsg33
Nsg34
Nsg35
Nsg36
Nsg37
Nsg38
Nsg39
Nsg40
Nsg41
Nsbsg42
S'0d1b7d52-38c4-4e20-988c-cc02dab64eb7'
p440
sg44
Nsbag1
(g2
g3
Ntp441
Rp442
(dp443
g7
S"\xb1\x05\xcc\x1b\xe4\r'\xa7\x92\xed\xcf\x07\n\xef\x0c3"
p444
sg9
I1355408870000
sg10
I1348656692000
sg11
Nsg12
I500
sg13
S'the United States has prevailed in the Cold War.'
p445
sg15
S'b04a5825-1b8f-4f5d-98dc-34398a0c9089'
p446
sg17
S'<?xml version="1.0" encoding="UTF-8" standalone="no"?>\n<!DOCTYPE en-note SYSTEM "http://xml.evernote.com/pub/enml2.dtd">\n<en-note style="word-wrap: break-word; -webkit-nbsp-mode: space; -webkit-line-break: after-white-space;">\nthe United States has <font color="#E30000">prevailed</font> in the Cold War.\n<div><br/></div>\n<div><br/></div>\n<div>prevail: <font color="#FF2803">\xc2\xa0if a belief, custom and situation etc prevail, they exist among a group of people at certain times.</font></div>\n</en-note>\n'
p447
sg19
Nsg20
I1033
sg21
Nsg22
I01
sg23
g1
(g24
g3
Ntp448
Rp449
(dp450
g28
Nsg29
Nsg30
S'suyuxin'
p451
sg32
Nsg33
Nsg34
Nsg35
Nsg36
Nsg37
Nsg38
Nsg39
Nsg40
Nsg41
Nsbsg42
S'5983810a-5f1d-464e-beaf-332f540c27c7'
p452
sg44
Nsbag1
(g2
g3
Ntp453
Rp454
(dp455
g7
S'\x8b\nD*\x08\x80||6q6\xe8C\x13g\x03'
p456
sg9
I1355408861000
sg10
I1348656308000
sg11
Nsg12
I641
sg13
S'This book is to explain the conceptual way of Chinese think about problems of pe'
p457
sg15
S'b04a5825-1b8f-4f5d-98dc-34398a0c9089'
p458
sg17
S'<?xml version="1.0" encoding="UTF-8" standalone="no"?>\n<!DOCTYPE en-note SYSTEM "http://xml.evernote.com/pub/enml2.dtd">\n<en-note style="word-wrap: break-word; -webkit-nbsp-mode: space; -webkit-line-break: after-white-space;">\nThis book is to explain the conceptual way of Chinese think about problems of peace and war and international order, and its relationship to the more <font color="#E30000">pragmatic</font>, case-by-case American approach.\n<div><br/></div>\n<div><br/></div>\n<div>pragmatic: <font color="#293AFF">dealing with problems with a sensible practice way instead of strictly following a set of ideas</font></div>\n</en-note>\n'
p459
sg19
Nsg20
I1034
sg21
Nsg22
I01
sg23
g1
(g24
g3
Ntp460
Rp461
(dp462
g28
Nsg29
Nsg30
S'suyuxin'
p463
sg32
Nsg33
Nsg34
Nsg35
Nsg36
Nsg37
Nsg38
Nsg39
Nsg40
Nsg41
Nsbsg42
S'f581c94e-7d2e-423f-8a58-3a466e37e69f'
p464
sg44
Nsbag1
(g2
g3
Ntp465
Rp466
(dp467
g7
S'g~^\x964\xdb\xd1cec\xb8\x9dI\xe9\xc7\xd2'
p468
sg9
I1355408844000
sg10
I1348655837000
sg11
Nsg12
I693
sg13
S'China, through technically an ally of Soviet Union, was in quest of maneuvering'
p469
sg15
S'b04a5825-1b8f-4f5d-98dc-34398a0c9089'
p470
sg17
S'<?xml version="1.0" encoding="UTF-8" standalone="no"?>\n<!DOCTYPE en-note SYSTEM "http://xml.evernote.com/pub/enml2.dtd">\n<en-note style="word-wrap: break-word; -webkit-nbsp-mode: space; -webkit-line-break: after-white-space;">\nChina, through technically an ally of Soviet Union, was <font color="#E30000">in quest of</font> maneuvering room to resist a threatened attack from Moscow.\n<div><br/></div>\n<div><br/></div>\n<div>in quest of : <font color="#FF2600">trying to find or get something</font></div>\n<div><br/></div>\n<div>room for maneuver: <font color="#2C3DFF">the possibility of changing your plan or decision in order to achieve what you want.</font></div>\n<div><br/></div>\n</en-note>\n'
p471
sg19
Nsg20
I1035
sg21
Nsg22
I01
sg23
g1
(g24
g3
Ntp472
Rp473
(dp474
g28
Nsg29
Nsg30
S'suyuxin'
p475
sg32
Nsg33
Nsg34
Nsg35
Nsg36
Nsg37
Nsg38
Nsg39
Nsg40
Nsg41
Nsbsg42
S'65e5b3b2-71ef-49e6-91be-1a912f187c0a'
p476
sg44
Nsbag1
(g2
g3
Ntp477
Rp478
(dp479
g7
S'\xf1\x9ct;\x04\xb4\xe1\x87\x8a\t\x13\xaf\xa3\xcd@r'
p480
sg9
I1355408800000
sg10
I1348644527000
sg11
Nsg12
I676
sg13
S'As a paradigm of dynamical processes, random walks on complex network have been'
p481
sg15
S'b04a5825-1b8f-4f5d-98dc-34398a0c9089'
p482
sg17
S'<?xml version="1.0" encoding="UTF-8" standalone="no"?>\n<!DOCTYPE en-note SYSTEM "http://xml.evernote.com/pub/enml2.dtd">\n<en-note style="word-wrap: break-word; -webkit-nbsp-mode: space; -webkit-line-break: after-white-space;">\nAs a paradigm of dynamical processes, random walks on complex network have been <font color="#FF0000">intensively</font> studied and in particular first-passage times have been widely used as a quantitative indicator of transport efficiency.\n<div><br/></div>\n<div><br/></div>\n<div><br/></div>\n<div>intensive: <font color="#FF2600">involving a lot of activities, efforts or carefull attentions in a very short period of time.</font></div>\n</en-note>\n'
p483
sg19
Nsg20
I1036
sg21
Nsg22
I01
sg23
g1
(g24
g3
Ntp484
Rp485
(dp486
g28
Nsg29
Nsg30
S'suyuxin'
p487
sg32
Nsg33
Nsg34
Nsg35
Nsg36
Nsg37
Nsg38
Nsg39
Nsg40
Nsg41
Nsbsg42
S'ea1484cc-9779-416e-840c-cf058a9b6ffc'
p488
sg44
Nsbag1
(g2
g3
Ntp489
Rp490
(dp491
g7
S'\xc2u\xb0\x04\x9b\xcf\x01\x9c\xe2\xd6b\x92\x8cwm\xda'
p492
sg9
I1355408666000
sg10
I1348644101000
sg11
Nsg12
I702
sg13
S'We present a general framework, applicable to a board class of random walk on co'
p493
sg15
S'b04a5825-1b8f-4f5d-98dc-34398a0c9089'
p494
sg17
S'<?xml version="1.0" encoding="UTF-8" standalone="no"?>\n<!DOCTYPE en-note SYSTEM "http://xml.evernote.com/pub/enml2.dtd">\n<en-note style="word-wrap: break-word; -webkit-nbsp-mode: space; -webkit-line-break: after-white-space;">\nWe present a general framework, <font color="#A600C4">applicable to</font> <font color="#3665EE">a board class of</font> random walk on complex network, which provide a <font color="#E30000">rigorous</font> lower bounds for mean first-passage time of a random walker to target sites averaged over its starting points, the so called global mean first-passage time.\n<div><br/></div>\n<div>rigorous: <font color="#FF2600">adj : careful, through and exact</font></div>\n</en-note>\n'
p495
sg19
Nsg20
I1037
sg21
Nsg22
I01
sg23
g1
(g24
g3
Ntp496
Rp497
(dp498
g28
Nsg29
Nsg30
S'suyuxin'
p499
sg32
Nsg33
Nsg34
Nsg35
Nsg36
Nsg37
Nsg38
Nsg39
Nsg40
Nsg41
Nsbsg42
S'308115f1-caaf-4a71-9f93-26570c037d70'
p500
sg44
Nsbag1
(g2
g3
Ntp501
Rp502
(dp503
g7
S'\x88,\xf4\x12\xb6\xbeJ\xff$\x0f\xdbL\xcc\x95\xba~'
p504
sg9
I1349693469000
sg10
I1348539031000
sg11
Nsg12
I334
sg13
S'The degree exponent of DAN and GDAN is changeable between 2 and 3.'
p505
sg15
S'b04a5825-1b8f-4f5d-98dc-34398a0c9089'
p506
sg17
S'<?xml version="1.0" encoding="UTF-8" standalone="no"?>\n<!DOCTYPE en-note SYSTEM "http://xml.evernote.com/pub/enml2.dtd">\n<en-note style="word-wrap: break-word; -webkit-nbsp-mode: space; -webkit-line-break: after-white-space;">\nThe degree exponent of DAN and GDAN is <font color="#E30000">changeable between</font> 2 and 3.\n</en-note>\n'
p507
sg19
Nsg20
I1038
sg21
Nsg22
I01
sg23
g1
(g24
g3
Ntp508
Rp509
(dp510
g28
Nsg29
Nsg30
S'suyuxin'
p511
sg32
Nsg33
Nsg34
Nsg35
Nsg36
Nsg37
Nsg38
Nsg39
Nsg40
Nsg41
Nsbsg42
S'971b3a9d-e715-49a7-9654-a11c7566b73c'
p512
sg44
Nsbag1
(g2
g3
Ntp513
Rp514
(dp515
g7
S'\xba\xc1\xa7\x80\x91\xe2Mwj\x04\xb9\xe9XV9N'
p516
sg9
I1348538955000
sg10
I1348538884000
sg11
Nsg12
I379
sg13
S'Both DAN and EDN have a power-law degree distribution, a very large clustering c'
p517
sg15
S'b04a5825-1b8f-4f5d-98dc-34398a0c9089'
p518
sg17
S'<?xml version="1.0" encoding="UTF-8"?>\n<!DOCTYPE en-note SYSTEM "http://xml.evernote.com/pub/enml2.dtd">\n\n<en-note style="word-wrap: break-word; -webkit-nbsp-mode: space; -webkit-line-break: after-white-space;">\nBoth DAN and EDN have a power-law degree distribution, a very large clustering coefficient and a small <font color="#FF0000">inter-vertex separation</font>.\n</en-note>'
p519
sg19
Nsg20
I1039
sg21
Nsg22
I01
sg23
g1
(g24
g3
Ntp520
Rp521
(dp522
g28
Nsg29
Nsg30
S'suyuxin'
p523
sg32
Nsg33
Nsg34
Nsg35
Nsg36
Nsg37
Nsg38
Nsg39
Nsg40
Nsg41
Nsbsg42
S'5d43de6e-e4f6-47dd-8cf7-5f9686523acf'
p524
sg44
Nsbag1
(g2
g3
Ntp525
Rp526
(dp527
g7
S'+\x90\xcd\x8f6\x06b\xdbFoLH\xe2\xb31M'
p528
sg9
I1348538879000
sg10
I1348537901000
sg11
Nsg12
I423
sg13
S'In this paper, we first propose a general scenario for constructing evolutionary'
p529
sg15
S'b04a5825-1b8f-4f5d-98dc-34398a0c9089'
p530
sg17
S'<?xml version="1.0" encoding="UTF-8"?>\n<!DOCTYPE en-note SYSTEM "http://xml.evernote.com/pub/enml2.dtd">\n\n<en-note style="word-wrap: break-word; -webkit-nbsp-mode: space; -webkit-line-break: after-white-space;">\nIn this paper, we first propose <font color="#E30000">a general scenario</font> for constructing evolutionary Applian networks <font color="#7600D8">controlled by</font> a parameter q.\n<div><br/></div></en-note>'
p531
sg19
Nsg20
I1040
sg21
Nsg22
I01
sg23
g1
(g24
g3
Ntp532
Rp533
(dp534
g28
Nsg29
Nsg30
S'suyuxin'
p535
sg32
Nsg33
Nsg34
Nsg35
Nsg36
Nsg37
Nsg38
Nsg39
Nsg40
Nsg41
Nsbsg42
S'd19081a4-6f84-45ca-84ab-cf3fa74c1353'
p536
sg44
Nsbag1
(g2
g3
Ntp537
Rp538
(dp539
g7
S'h\xe2\xcd\xf9\xe0\x00*`u\xbbQ\xdf\x97E%\xa5'
p540
sg9
I1348537299000
sg10
I1348537186000
sg11
Nsg12
I396
sg13
S"Another well known model is B and A's elegant scale-free network model, which ha"
p541
sg15
S'b04a5825-1b8f-4f5d-98dc-34398a0c9089'
p542
sg17
S'<?xml version="1.0" encoding="UTF-8"?>\n<!DOCTYPE en-note SYSTEM "http://xml.evernote.com/pub/enml2.dtd">\n\n<en-note style="word-wrap: break-word; -webkit-nbsp-mode: space; -webkit-line-break: after-white-space;">\nAnother well known model is B and A&apos;s elegant scale-free network model, which has attracted an exceptional amount of attention within physics community.\n<div><br/></div></en-note>'
p543
sg19
Nsg20
I1041
sg21
Nsg22
I01
sg23
g1
(g24
g3
Ntp544
Rp545
(dp546
g28
Nsg29
Nsg30
S'suyuxin'
p547
sg32
Nsg33
Nsg34
Nsg35
Nsg36
Nsg37
Nsg38
Nsg39
Nsg40
Nsg41
Nsbsg42
S'f210ee33-9745-4131-a6fb-16829569f42a'
p548
sg44
Nsbag1
(g2
g3
Ntp549
Rp550
(dp551
g7
S'\x81\xae\xec&n\x03M\xe7s\x0c\xa7\x93\xb1\xf7\x93\xf9'
p552
sg9
I1347165866000
sg10
I1347165866000
sg11
Nsg12
I340
sg13
S'the enormous loss of life on the Titanic was primarily caused by inadequate equi'
p553
sg15
S'b04a5825-1b8f-4f5d-98dc-34398a0c9089'
p554
sg17
S'<?xml version="1.0" encoding="UTF-8"?><!DOCTYPE en-note SYSTEM "http://xml.evernote.com/pub/enml2.dtd"><en-note style="word-wrap: break-word; -webkit-nbsp-mode: space; -webkit-line-break: after-white-space;"><div>the enormous loss of life on the Titanic was primarily caused by inadequate equipment, training and procedures.</div></en-note>'
p555
sg19
Nsg20
I1042
sg21
Nsg22
I01
sg23
g1
(g24
g3
Ntp556
Rp557
(dp558
g28
Nsg29
Nsg30
S'suyuxin'
p559
sg32
Nsg33
Nsg34
Nsg35
Nsg36
Nsg37
Nsg38
Nsg39
Nsg40
Nsg41
Nsbsg42
S'd952a0af-a2e4-4cf6-977e-11bf06d58c53'
p560
sg44
Nsbag1
(g2
g3
Ntp561
Rp562
(dp563
g7
S'\xcf,=\x0be\xa4\xb6B=\x9b\x07r\xc1iO\xa7'
p564
sg9
I1347165766000
sg10
I1347165766000
sg11
Nsg12
I256
sg13
S'the finest ship ever built.'
p565
sg15
S'b04a5825-1b8f-4f5d-98dc-34398a0c9089'
p566
sg17
S'<?xml version="1.0" encoding="UTF-8"?><!DOCTYPE en-note SYSTEM "http://xml.evernote.com/pub/enml2.dtd"><en-note style="word-wrap: break-word; -webkit-nbsp-mode: space; -webkit-line-break: after-white-space;"><div>the finest ship ever built.</div></en-note>'
p567
sg19
Nsg20
I1043
sg21
Nsg22
I01
sg23
g1
(g24
g3
Ntp568
Rp569
(dp570
g28
Nsg29
Nsg30
S'suyuxin'
p571
sg32
Nsg33
Nsg34
Nsg35
Nsg36
Nsg37
Nsg38
Nsg39
Nsg40
Nsg41
Nsbsg42
S'7875845e-80d1-49ca-9a56-32bfff84354e'
p572
sg44
Nsbag1
(g2
g3
Ntp573
Rp574
(dp575
g7
S'\xe2?\xa7\xb7\x91t\xe7i\xf4\xeb\xe6\xa0\xd4)\xcc8'
p576
sg9
I1347165736000
sg10
I1347165736000
sg11
Nsg12
I276
sg13
S'the texts and questions increase in difficulty.'
p577
sg15
S'b04a5825-1b8f-4f5d-98dc-34398a0c9089'
p578
sg17
S'<?xml version="1.0" encoding="UTF-8"?><!DOCTYPE en-note SYSTEM "http://xml.evernote.com/pub/enml2.dtd"><en-note style="word-wrap: break-word; -webkit-nbsp-mode: space; -webkit-line-break: after-white-space;"><div>the texts and questions increase in difficulty.</div></en-note>'
p579
sg19
Nsg20
I1044
sg21
Nsg22
I01
sg23
g1
(g24
g3
Ntp580
Rp581
(dp582
g28
Nsg29
Nsg30
S'suyuxin'
p583
sg32
Nsg33
Nsg34
Nsg35
Nsg36
Nsg37
Nsg38
Nsg39
Nsg40
Nsg41
Nsbsg42
S'7e98cada-304a-45a6-b20d-4d91f2d97625'
p584
sg44
Nsbag1
(g2
g3
Ntp585
Rp586
(dp587
g7
S'x0\xc3\xf8<\x19\\\xae\xf7\x83\xdc,\xa2\xd3$\x91'
p588
sg9
I1349695750000
sg10
I1346377742000
sg11
Nsg12
I508
sg13
S'The decade-old discovery of scale-free networks was one of those events that had'
p589
sg15
S'b04a5825-1b8f-4f5d-98dc-34398a0c9089'
p590
sg17
S'<?xml version="1.0" encoding="UTF-8"?>\n<!DOCTYPE en-note SYSTEM "http://xml.evernote.com/pub/enml2.dtd">\n\n<en-note style="word-wrap: break-word; -webkit-nbsp-mode: space; -webkit-line-break: after-white-space;"><div>The <font color="#EB0073">decade-old discovery</font> of scale-free networks was one of&nbsp;those events that had <font color="#9E00F3">helped catalyze</font> the emergence of network science, a new research field with&nbsp;its distinct set of challenges and accomplishments.</div></en-note>'
p591
sg19
Nsg20
I1045
sg21
Nsg22
I01
sg23
g1
(g24
g3
Ntp592
Rp593
(dp594
g28
Nsg29
Nsg30
S'suyuxin'
p595
sg32
Nsg33
Nsg34
Nsg35
Nsg36
Nsg37
Nsg38
Nsg39
Nsg40
Nsg41
Nsbsg42
S'b5bb0ff1-82de-4abd-86cc-5a82cbcd6fc7'
p596
sg44
Nsbag1
(g2
g3
Ntp597
Rp598
(dp599
g7
S'(\xa1\x86\x91\x80*\x89{\xed\xf5K\xe4\xe5\xf4\x12\x83'
p600
sg9
I1346377681000
sg10
I1346377651000
sg11
Nsg12
I639
sg13
S'In the past decade, an avalanche of research has shown that many real networks,'
p601
sg15
S'b04a5825-1b8f-4f5d-98dc-34398a0c9089'
p602
sg17
S'<?xml version="1.0" encoding="UTF-8"?>\n<!DOCTYPE en-note SYSTEM "http://xml.evernote.com/pub/enml2.dtd">\n\n<en-note style="word-wrap: break-word; -webkit-nbsp-mode: space; -webkit-line-break: after-white-space;"><div>In the past decade, <font color="#FF0000">an avalanche of</font> research&nbsp;has shown that many real networks, independent of their age, function, and scope, <font color="#9E00F3">converge to</font>&nbsp;similar architectures, <font color="#A600C4">a universality</font> that allowed researchers from different disciplines to <font color="#1ECCFF">embrace</font>&nbsp;network theory as a common paradigm.</div></en-note>'
p603
sg19
Nsg20
I1046
sg21
Nsg22
I01
sg23
g1
(g24
g3
Ntp604
Rp605
(dp606
g28
Nsg29
Nsg30
S'suyuxin'
p607
sg32
Nsg33
Nsg34
Nsg35
Nsg36
Nsg37
Nsg38
Nsg39
Nsg40
Nsg41
Nsbsg42
S'e3c851b6-0a0c-43d7-8ada-7a205848cfa8'
p608
sg44
Nsbag1
(g2
g3
Ntp609
Rp610
(dp611
g7
S'!\xa0\x9c\x80\xdc\x84\x8bb3\x1dD\x11]\xc0N^'
p612
sg9
I1346377017000
sg10
I1346376835000
sg11
Nsg12
I534
sg13
S'For decade, we tacitly assume that the components of such complex systems as the'
p613
sg15
S'b04a5825-1b8f-4f5d-98dc-34398a0c9089'
p614
sg17
S'<?xml version="1.0" encoding="UTF-8"?>\n<!DOCTYPE en-note SYSTEM "http://xml.evernote.com/pub/enml2.dtd">\n\n<en-note style="word-wrap: break-word; -webkit-nbsp-mode: space; -webkit-line-break: after-white-space;">\nFor decade, we <font color="#FF0000">tacitly</font> assume that the components of such complex systems as the cell, the society and the Internet, are randomly wired together.\n<div><br/></div><div><br/></div><div>Note: tacit : tacit agreement, approval or support etc is given without any actual being said.</div></en-note>'
p615
sg19
Nsg20
I1047
sg21
Nsg22
I01
sg23
g1
(g24
g3
Ntp616
Rp617
(dp618
g28
Nsg29
Nsg30
S'suyuxin'
p619
sg32
Nsg33
Nsg34
Nsg35
Nsg36
Nsg37
Nsg38
Nsg39
Nsg40
Nsg41
Nsbsg42
S'd905434c-0cbc-4ca4-afdd-62381ea0ec96'
p620
sg44
Nsbag1
(g2
g3
Ntp621
Rp622
(dp623
g7
S'\x8e>\xb0\xa1sg\x87\x0e\xaac\x8e\x97a\x83\xce`'
p624
sg9
I1345900437000
sg10
I1345900426000
sg11
Nsg12
I483
sg13
S'The produce was then transported by water to markets in the cities, where the co'
p625
sg15
S'b04a5825-1b8f-4f5d-98dc-34398a0c9089'
p626
sg17
S'<?xml version="1.0" encoding="UTF-8"?>\n<!DOCTYPE en-note SYSTEM "http://xml.evernote.com/pub/enml2.dtd">\n\n<en-note style="word-wrap: break-word; -webkit-nbsp-mode: space; -webkit-line-break: after-white-space;"><div>The&nbsp;produce <font color="#3665EE">was then transported by water</font> to markets in the cities, where <font color="#E30000">the consumption of</font> fruit and vegetables was no&nbsp;longer <font color="#E30000">restricted to the wealthy</font>.</div></en-note>'
p627
sg19
Nsg20
I1048
sg21
Nsg22
I01
sg23
g1
(g24
g3
Ntp628
Rp629
(dp630
g28
Nsg29
Nsg30
S'suyuxin'
p631
sg32
Nsg33
Nsg34
Nsg35
Nsg36
Nsg37
Nsg38
Nsg39
Nsg40
Nsg41
Nsbsg42
S'c1659e6e-2121-4e92-aa95-abb401d18cb8'
p632
sg44
Nsbag1
(g2
g3
Ntp633
Rp634
(dp635
g7
S'p\x11\x9b\x7fC\x92FB$\xcf\xb4\xf0f\xba\x18L'
p636
sg9
I1345900361000
sg10
I1345900350000
sg11
Nsg12
I343
sg13
S'It is also more irregular, with brief episodes of shallow breathing or absence o'
p637
sg15
S'b04a5825-1b8f-4f5d-98dc-34398a0c9089'
p638
sg17
S'<?xml version="1.0" encoding="UTF-8"?>\n<!DOCTYPE en-note SYSTEM "http://xml.evernote.com/pub/enml2.dtd">\n\n<en-note style="word-wrap: break-word; -webkit-nbsp-mode: space; -webkit-line-break: after-white-space;">\nIt is also more irregular, <font color="#E30000">with brief episodes of</font> shallow breathing or absence of breathing\n</en-note>'
p639
sg19
Nsg20
I1049
sg21
Nsg22
I01
sg23
g1
(g24
g3
Ntp640
Rp641
(dp642
g28
Nsg29
Nsg30
S'suyuxin'
p643
sg32
Nsg33
Nsg34
Nsg35
Nsg36
Nsg37
Nsg38
Nsg39
Nsg40
Nsg41
Nsbsg42
S'571084ed-71b5-47e5-b626-20edc90f4023'
p644
sg44
Nsbag1
(g2
g3
Ntp645
Rp646
(dp647
g7
S'i\xe4\xc93\xe6\xf4\xb0HI\x9c~FX\xff\x02\xa4'
p648
sg9
I1345900311000
sg10
I1345900300000
sg11
Nsg12
I516
sg13
S'Importing the grain, which would have been expensive and time-consuming for the'
p649
sg15
S'b04a5825-1b8f-4f5d-98dc-34398a0c9089'
p650
sg17
S'<?xml version="1.0" encoding="UTF-8"?>\n<!DOCTYPE en-note SYSTEM "http://xml.evernote.com/pub/enml2.dtd">\n\n<en-note style="word-wrap: break-word; -webkit-nbsp-mode: space; -webkit-line-break: after-white-space;"><div>Importing the grain, which would have been <font color="#E30000">expensive and time-consuming</font> for the Dutch to have produced themselves, kept the price of grain low and thus <font color="#E30000">stimulated individual&nbsp;demand</font> for other foodstuffs and consumer goods.</div></en-note>'
p651
sg19
Nsg20
I1050
sg21
Nsg22
I01
sg23
g1
(g24
g3
Ntp652
Rp653
(dp654
g28
Nsg29
Nsg30
S'suyuxin'
p655
sg32
Nsg33
Nsg34
Nsg35
Nsg36
Nsg37
Nsg38
Nsg39
Nsg40
Nsg41
Nsbsg42
S'32fcd1d1-32e1-4639-ba9e-c13a9ae6e8cd'
p656
sg44
Nsbag1
(g2
g3
Ntp657
Rp658
(dp659
g7
S']\xb0W\xb5\xaedr7\xec:\t\xbf\xcf\xc9\xde\xa7'
p660
sg9
I1345900239000
sg10
I1345900233000
sg11
Nsg12
I365
sg13
S'If a house were perfectly insulated, one adult could also produce more than enou'
p661
sg15
S'b04a5825-1b8f-4f5d-98dc-34398a0c9089'
p662
sg17
S'<?xml version="1.0" encoding="UTF-8"?>\n<!DOCTYPE en-note SYSTEM "http://xml.evernote.com/pub/enml2.dtd">\n\n<en-note style="word-wrap: break-word; -webkit-nbsp-mode: space; -webkit-line-break: after-white-space;"><div>If a house were perfectly&nbsp;insulated, one adult could also produce <font color="#E30000">more than enough</font> heat to warm it.</div></en-note>'
p663
sg19
Nsg20
I1051
sg21
Nsg22
I01
sg23
g1
(g24
g3
Ntp664
Rp665
(dp666
g28
Nsg29
Nsg30
S'suyuxin'
p667
sg32
Nsg33
Nsg34
Nsg35
Nsg36
Nsg37
Nsg38
Nsg39
Nsg40
Nsg41
Nsbsg42
S'3f751210-eacd-4adc-a12c-4eb12a0ede47'
p668
sg44
Nsbag1
(g2
g3
Ntp669
Rp670
(dp671
g7
S'\xf3O$\x1c\xe5\xf9\xdan\xd8U\xc1\x81\x0e\xf9\xc5d'
p672
sg9
I1345900190000
sg10
I1345900170000
sg11
Nsg12
I368
sg13
S'Later on, it became very difficult to change because of the significant expansio'
p673
sg15
S'b04a5825-1b8f-4f5d-98dc-34398a0c9089'
p674
sg17
S'<?xml version="1.0" encoding="UTF-8"?>\n<!DOCTYPE en-note SYSTEM "http://xml.evernote.com/pub/enml2.dtd">\n\n<en-note style="word-wrap: break-word; -webkit-nbsp-mode: space; -webkit-line-break: after-white-space;"><div>Later on, it became very difficult to change because&nbsp;of <font color="#FF0000">the significant expansion</font> of these populations</div></en-note>'
p675
sg19
Nsg20
I1052
sg21
Nsg22
I01
sg23
g1
(g24
g3
Ntp676
Rp677
(dp678
g28
Nsg29
Nsg30
S'suyuxin'
p679
sg32
Nsg33
Nsg34
Nsg35
Nsg36
Nsg37
Nsg38
Nsg39
Nsg40
Nsg41
Nsbsg42
S'910c07f9-7681-43c7-a73a-5655516119c6'
p680
sg44
Nsbag1
(g2
g3
Ntp681
Rp682
(dp683
g7
S'vI\x80\xbe\x89\xe6\x187T\x97\xdc\xe6\x13\xa9-D'
p684
sg9
I1345900127000
sg10
I1345900118000
sg11
Nsg12
I460
sg13
S'This facility was then in its third decade of production and was beginning to sh'
p685
sg15
S'b04a5825-1b8f-4f5d-98dc-34398a0c9089'
p686
sg17
S'<?xml version="1.0" encoding="UTF-8"?>\n<!DOCTYPE en-note SYSTEM "http://xml.evernote.com/pub/enml2.dtd">\n\n<en-note style="word-wrap: break-word; -webkit-nbsp-mode: space; -webkit-line-break: after-white-space;"><div>This facility was then in <font color="#D100FF">its&nbsp;third decade of production</font> and was beginning to show <font color="#E30000">signs of decline</font>, perhaps because of <font color="#3665EE">over development</font></div></en-note>'
p687
sg19
Nsg20
I1053
sg21
Nsg22
I01
sg23
g1
(g24
g3
Ntp688
Rp689
(dp690
g28
Nsg29
Nsg30
S'suyuxin'
p691
sg32
Nsg33
Nsg34
Nsg35
Nsg36
Nsg37
Nsg38
Nsg39
Nsg40
Nsg41
Nsbsg42
S'0c439eae-2ddd-42a4-92d7-3f3c8326459d'
p692
sg44
Nsbag1
(g2
g3
Ntp693
Rp694
(dp695
g7
S' \xc2J\x82#t1\xac\xab\x10$\x0b\xce\xe8!\xc9'
p696
sg9
I1345900057000
sg10
I1345900029000
sg11
Nsg12
I467
sg13
S'When parents talk with children about "what we did today" or "last week" or "las'
p697
sg15
S'b04a5825-1b8f-4f5d-98dc-34398a0c9089'
p698
sg17
S'<?xml version="1.0" encoding="UTF-8"?>\n<!DOCTYPE en-note SYSTEM "http://xml.evernote.com/pub/enml2.dtd">\n\n<en-note style="word-wrap: break-word; -webkit-nbsp-mode: space; -webkit-line-break: after-white-space;"><div>When parents talk with children about &quot;what we did today&quot; or &quot;last week&quot;&nbsp;or &quot;last year,&quot; they <font color="#E30000">guide the children&apos;s formation of a framework</font> for talking about the past</div></en-note>'
p699
sg19
Nsg20
I1054
sg21
Nsg22
I01
sg23
g1
(g24
g3
Ntp700
Rp701
(dp702
g28
Nsg29
Nsg30
S'suyuxin'
p703
sg32
Nsg33
Nsg34
Nsg35
Nsg36
Nsg37
Nsg38
Nsg39
Nsg40
Nsg41
Nsbsg42
S'f1175807-1feb-4ab7-a232-acbd6c2ff2af'
p704
sg44
Nsbag1
(g2
g3
Ntp705
Rp706
(dp707
g7
S'\x98\xa9\x18&\xf8\x1en\xcc\xd6\x11\xb7\x88\xb9\x1a\x1b\x87'
p708
sg9
I1345899914000
sg10
I1345899914000
sg11
Nsg12
I525
sg13
S'A final suggestion is that children must begin to develop a "theory of mind"\xe2\x80\x94 an'
p709
sg15
S'b04a5825-1b8f-4f5d-98dc-34398a0c9089'
p710
sg17
S'<?xml version="1.0" encoding="UTF-8"?>\n<!DOCTYPE en-note SYSTEM "http://xml.evernote.com/pub/enml2.dtd">\n\n<en-note style="word-wrap: break-word; -webkit-nbsp-mode: space; -webkit-line-break: after-white-space;"><div>A final suggestion is that children must begin to develop a &quot;theory of mind&quot;\xe2\x80\x94 <font color="#E30000">an awareness of concepts</font> of&nbsp;mental states (feelings, desires, beliefs, and thoughts), their own and those of others\xe2\x80\x94before they can talk about their&nbsp;own past memories</div></en-note>'
p711
sg19
Nsg20
I1055
sg21
Nsg22
I01
sg23
g1
(g24
g3
Ntp712
Rp713
(dp714
g28
Nsg29
Nsg30
S'suyuxin'
p715
sg32
Nsg33
Nsg34
Nsg35
Nsg36
Nsg37
Nsg38
Nsg39
Nsg40
Nsg41
Nsbsg42
S'2d9ab6c2-2e95-4da7-8c3b-e7a5e087894a'
p716
sg44
Nsbag1
(g2
g3
Ntp717
Rp718
(dp719
g7
S'W\xa6\x01\x02\x85\xbe:\xb2\x9b\xb1\xe58\x19j\x16\xcd'
p720
sg9
I1345899855000
sg10
I1345899821000
sg11
Nsg12
I463
sg13
S'They also provide children with reminder about the memory and relay the message'
p721
sg15
S'b04a5825-1b8f-4f5d-98dc-34398a0c9089'
p722
sg17
S'<?xml version="1.0" encoding="UTF-8"?>\n<!DOCTYPE en-note SYSTEM "http://xml.evernote.com/pub/enml2.dtd">\n\n<en-note style="word-wrap: break-word; -webkit-nbsp-mode: space; -webkit-line-break: after-white-space;"><div>They also provide children&nbsp;with <font color="#EB0073">reminder about the memory</font> and relay the message that memories are <font color="#A600C4">valued as part of</font> the <font color="#5898FF">cultural experience</font></div></en-note>'
p723
sg19
Nsg20
I1056
sg21
Nsg22
I01
sg23
g1
(g24
g3
Ntp724
Rp725
(dp726
g28
Nsg29
Nsg30
S'suyuxin'
p727
sg32
Nsg33
Nsg34
Nsg35
Nsg36
Nsg37
Nsg38
Nsg39
Nsg40
Nsg41
Nsbsg42
S'0cb1f4c7-4ad2-4ff4-87d1-87a334cea28d'
p728
sg44
Nsbag1
(g2
g3
Ntp729
Rp730
(dp731
g7
S'\x9e\\\x03\x07F\xea\xff\xb15\x95\xd2\xdc\xab5\xeb\x06'
p732
sg9
I1346325583000
sg10
I1345899760000
sg11
Nsg12
I516
sg13
S'Inspired by empirical studies of networked systems such as the Internet and biol'
p733
sg15
S'b04a5825-1b8f-4f5d-98dc-34398a0c9089'
p734
sg17
S'<?xml version="1.0" encoding="UTF-8"?>\n<!DOCTYPE en-note SYSTEM "http://xml.evernote.com/pub/enml2.dtd">\n\n<en-note style="word-wrap: break-word; -webkit-nbsp-mode: space; -webkit-line-break: after-white-space;"><div><font color="#E30000">Inspired by</font> empirical <font color="#5898FF">studies</font>&nbsp;of networked systems such as the Internet and biological networks,&nbsp;researchers have developed a variety of techniques and&nbsp;models to help us understand the behavior of these systems.</div></en-note>'
p735
sg19
Nsg20
I1057
sg21
Nsg22
I01
sg23
g1
(g24
g3
Ntp736
Rp737
(dp738
g28
Nsg29
Nsg30
S'suyuxin'
p739
sg32
Nsg33
Nsg34
Nsg35
Nsg36
Nsg37
Nsg38
Nsg39
Nsg40
Nsg41
Nsbsg42
S'e9c7ee90-89c6-4a2a-82b4-476441fec447'
p740
sg44
Nsbag1
(g2
g3
Ntp741
Rp742
(dp743
g7
S'\xde\x13\x9a\xf40R#\xc2\x85\x99\xf1\xbf\xa2\xc7\x99\x0f'
p744
sg9
I1346325416000
sg10
I1345899640000
sg11
Nsg12
I511
sg13
S'Perhaps the explanation goes back to some ideas raised by influential Swiss psyc'
p745
sg15
S'b04a5825-1b8f-4f5d-98dc-34398a0c9089'
p746
sg17
S'<?xml version="1.0" encoding="UTF-8"?>\n<!DOCTYPE en-note SYSTEM "http://xml.evernote.com/pub/enml2.dtd">\n\n<en-note style="word-wrap: break-word; -webkit-nbsp-mode: space; -webkit-line-break: after-white-space;"><div>Perhaps the <font color="#E30000">explanation goes back to some ideas</font> raised by influential Swiss psychologist Jean Piaget\xe2\x80\x94namely,&nbsp;that children under age two years represent events in a <font color="#9E00F3">qualitatively</font> different form than older children do</div></en-note>'
p747
sg19
Nsg20
I1058
sg21
Nsg22
I01
sg23
g1
(g24
g3
Ntp748
Rp749
(dp750
g28
Nsg29
Nsg30
S'suyuxin'
p751
sg32
Nsg33
Nsg34
Nsg35
Nsg36
Nsg37
Nsg38
Nsg39
Nsg40
Nsg41
Nsbsg42
S'd4c928c2-c534-4dc8-92bc-86f19145ddb1'
p752
sg44
Nsbag1
(g2
g3
Ntp753
Rp754
(dp755
g7
S'\xd5\xbf\x9b\xa2^\x8a;z\xa7C*\xe3\x82\xbe\xd2\x13'
p756
sg9
I1346325683000
sg10
I1345899551000
sg11
Nsg12
I447
sg13
S'The realistic and naturalistic painters of the mid- and late-nineteenth century'
p757
sg15
S'b04a5825-1b8f-4f5d-98dc-34398a0c9089'
p758
sg17
S'<?xml version="1.0" encoding="UTF-8"?>\n<!DOCTYPE en-note SYSTEM "http://xml.evernote.com/pub/enml2.dtd">\n\n<en-note style="word-wrap: break-word; -webkit-nbsp-mode: space; -webkit-line-break: after-white-space;">\nThe <font color="#D100FF">realistic and naturalistic</font> painters of the mid- and late-nineteenth century were <font color="#E30000">all intently aware of</font> photography\xe2\x80\x94as a thing to use, to learn from, and react to.\n</en-note>'
p759
sg19
Nsg20
I1059
sg21
Nsg22
I01
sg23
g1
(g24
g3
Ntp760
Rp761
(dp762
g28
Nsg29
Nsg30
S'suyuxin'
p763
sg32
Nsg33
Nsg34
Nsg35
Nsg36
Nsg37
Nsg38
Nsg39
Nsg40
Nsg41
Nsbsg42
S'f4b44a8c-c7b3-450e-a155-7284487dfbaf'
p764
sg44
Nsbag1
(g2
g3
Ntp765
Rp766
(dp767
g7
S'\xf0=\x1c:\xbb-R\xd7\xc1>d\x07\xa7|\x08,'
p768
sg9
I1345899484000
sg10
I1345899484000
sg11
Nsg12
I306
sg13
S'Agriculture would have been a solution to this problem.'
p769
sg15
S'b04a5825-1b8f-4f5d-98dc-34398a0c9089'
p770
sg17
S'<?xml version="1.0" encoding="UTF-8"?>\n<!DOCTYPE en-note SYSTEM "http://xml.evernote.com/pub/enml2.dtd">\n\n<en-note style="word-wrap: break-word; -webkit-nbsp-mode: space; -webkit-line-break: after-white-space;">\nAgriculture would have been <font color="#E30000">a solution to this problem.</font></en-note>'
p771
sg19
Nsg20
I1060
sg21
Nsg22
I01
sg23
g1
(g24
g3
Ntp772
Rp773
(dp774
g28
Nsg29
Nsg30
S'suyuxin'
p775
sg32
Nsg33
Nsg34
Nsg35
Nsg36
Nsg37
Nsg38
Nsg39
Nsg40
Nsg41
Nsbsg42
S'82224532-7b6f-4fd9-b519-40d2d97c7314'
p776
sg44
Nsbag1
(g2
g3
Ntp777
Rp778
(dp779
g7
S'\xab\xd6\xaabR"bJ\xcdg\xa5\x14l\xa4v\x82'
p780
sg9
I1346327996000
sg10
I1345899406000
sg11
Nsg12
I495
sg13
S'Many find that understanding the general nature of autobiographical memory, that'
p781
sg15
S'b04a5825-1b8f-4f5d-98dc-34398a0c9089'
p782
sg17
S'<?xml version="1.0" encoding="UTF-8"?>\n<!DOCTYPE en-note SYSTEM "http://xml.evernote.com/pub/enml2.dtd">\n\n<en-note style="word-wrap: break-word; -webkit-nbsp-mode: space; -webkit-line-break: after-white-space;"><div>Many find that understanding <font color="#9E00F3">the general&nbsp;nature of</font> autobiographical memory, that is, memory for events that have <font color="#E30000">occurred in</font> one&apos;s own life, can provide some&nbsp;important clues to this mystery.</div></en-note>'
p783
sg19
Nsg20
I1061
sg21
Nsg22
I01
sg23
g1
(g24
g3
Ntp784
Rp785
(dp786
g28
Nsg29
Nsg30
S'suyuxin'
p787
sg32
Nsg33
Nsg34
Nsg35
Nsg36
Nsg37
Nsg38
Nsg39
Nsg40
Nsg41
Nsbsg42
S'6dbd11c8-f4fb-4e11-9147-2ff5410abed6'
p788
sg44
Nsbag1
(g2
g3
Ntp789
Rp790
(dp791
g7
S'\xf9n\xc9\xa2\x14lD,!o\xfb\xaf\xef\xa7?6'
p792
sg9
I1345898937000
sg10
I1345898907000
sg11
Nsg12
I484
sg13
S'During NREM (the phase of sleep in which there is no rapid eye movement) breathi'
p793
sg15
S'b04a5825-1b8f-4f5d-98dc-34398a0c9089'
p794
sg17
S'<?xml version="1.0" encoding="UTF-8"?>\n<!DOCTYPE en-note SYSTEM "http://xml.evernote.com/pub/enml2.dtd">\n\n<en-note style="word-wrap: break-word; -webkit-nbsp-mode: space; -webkit-line-break: after-white-space;"><div>During NREM (the phase of sleep in which there is no rapid eye movement) breathing becomes deeper and more&nbsp;regular, but there is also <font color="#E30000">a&nbsp;decrease</font> in the breathing rate, resulting in less air being exchanged overall</div></en-note>'
p795
sg19
Nsg20
I1062
sg21
Nsg22
I01
sg23
g1
(g24
g3
Ntp796
Rp797
(dp798
g28
Nsg29
Nsg30
S'suyuxin'
p799
sg32
Nsg33
Nsg34
Nsg35
Nsg36
Nsg37
Nsg38
Nsg39
Nsg40
Nsg41
Nsbsg42
S'88741695-d176-44d6-9f48-b33dc9bd7ad4'
p800
sg44
Nsbag1
(g2
g3
Ntp801
Rp802
(dp803
g7
S't\x17\x03\x0bN\xdaX\x8a\xc8HE@\x87I\xc5\xdd'
p804
sg9
I1345898868000
sg10
I1345898859000
sg11
Nsg12
I367
sg13
S'Traditionally, it was believed that the transition to agriculture was the result'
p805
sg15
S'b04a5825-1b8f-4f5d-98dc-34398a0c9089'
p806
sg17
S'<?xml version="1.0" encoding="UTF-8"?>\n<!DOCTYPE en-note SYSTEM "http://xml.evernote.com/pub/enml2.dtd">\n\n<en-note style="word-wrap: break-word; -webkit-nbsp-mode: space; -webkit-line-break: after-white-space;">\nTraditionally, it was believed that the transition to agriculture was the result of a <font color="#E30000">world-wide population crisis</font>.\n</en-note>'
p807
sg19
Nsg20
I1063
sg21
Nsg22
I01
sg23
g1
(g24
g3
Ntp808
Rp809
(dp810
g28
Nsg29
Nsg30
S'suyuxin'
p811
sg32
Nsg33
Nsg34
Nsg35
Nsg36
Nsg37
Nsg38
Nsg39
Nsg40
Nsg41
Nsbsg42
S'22107a26-b7f4-4ac5-88e0-a5960248ca33'
p812
sg44
Nsbag1
(g2
g3
Ntp813
Rp814
(dp815
g7
S'\xb0ub\xfe\xe5L\xb1\xc3\xb2\x00K\xb4a\x13,\xbc'
p816
sg9
I1349694250000
sg10
I1345898763000
sg11
Nsg12
I620
sg13
S'It would appear that the instability of the climatic conditions led populations'
p817
sg15
S'b04a5825-1b8f-4f5d-98dc-34398a0c9089'
p818
sg17
S'<?xml version="1.0" encoding="UTF-8"?>\n<!DOCTYPE en-note SYSTEM "http://xml.evernote.com/pub/enml2.dtd">\n\n<en-note style="word-wrap: break-word; -webkit-nbsp-mode: space; -webkit-line-break: after-white-space;"><div>It would appear that <font color="#E30000">the instability of</font> the climatic conditions led populations that had originally been nomadic to&nbsp;settle down and develop <font color="#A600C4">a sedentary style of life</font>, which <font color="#E30000">led in turn to</font> <font color="#D100FF">population growth</font> and to the need to increase the&nbsp;amount of food available</div></en-note>'
p819
sg19
Nsg20
I1064
sg21
Nsg22
I01
sg23
g1
(g24
g3
Ntp820
Rp821
(dp822
g28
Nsg29
Nsg30
S'suyuxin'
p823
sg32
Nsg33
Nsg34
Nsg35
Nsg36
Nsg37
Nsg38
Nsg39
Nsg40
Nsg41
Nsbsg42
S'88aba653-511a-4027-8ef9-70033a3580d9'
p824
sg44
Nsbag1
(g2
g3
Ntp825
Rp826
(dp827
g7
S"&\xaf\xbd\xb7\xd9\xc4G:t\x97>\x8d\xb50E'"
p828
sg9
I1345898629000
sg10
I1345898629000
sg11
Nsg12
I434
sg13
S'Currently, reliable scientific evidence dates the earliest creation of art on ro'
p829
sg15
S'b04a5825-1b8f-4f5d-98dc-34398a0c9089'
p830
sg17
S'<?xml version="1.0" encoding="UTF-8"?>\n<!DOCTYPE en-note SYSTEM "http://xml.evernote.com/pub/enml2.dtd">\n\n<en-note style="word-wrap: break-word; -webkit-nbsp-mode: space; -webkit-line-break: after-white-space;">\nCurrently, reliable scientific evidence <font color="#A600C4">dates</font> the earliest creation of art on rock surfaces in Australia <font color="#E30000">to somewhere</font> between 30,000 and 50,000 years ago\n</en-note>'
p831
sg19
Nsg20
I1065
sg21
Nsg22
I01
sg23
g1
(g24
g3
Ntp832
Rp833
(dp834
g28
Nsg29
Nsg30
S'suyuxin'
p835
sg32
Nsg33
Nsg34
Nsg35
Nsg36
Nsg37
Nsg38
Nsg39
Nsg40
Nsg41
Nsbsg42
S'b66ac563-77a7-4a5d-8823-791a2c265c52'
p836
sg44
Nsbag1
(g2
g3
Ntp837
Rp838
(dp839
g7
S'\x01\xf3\x89\xaa\x95\x07\x06\x9c\xf3\xee\x928\xda\xc9[w'
p840
sg9
I1346329181000
sg10
I1345898549000
sg11
Nsg12
I417
sg13
S'In particular, and quite logically, the art of painting was forever changed, tho'
p841
sg15
S'b04a5825-1b8f-4f5d-98dc-34398a0c9089'
p842
sg17
S'<?xml version="1.0" encoding="UTF-8"?>\n<!DOCTYPE en-note SYSTEM "http://xml.evernote.com/pub/enml2.dtd">\n\n<en-note style="word-wrap: break-word; -webkit-nbsp-mode: space; -webkit-line-break: after-white-space;">\nIn particular, and <font color="#9E00F3">quite logically</font>, the art of painting was forever changed, <font color="#E30000">though not always in the ways one might have expected</font>&nbsp;\n</en-note>'
p843
sg19
Nsg20
I1066
sg21
Nsg22
I01
sg23
g1
(g24
g3
Ntp844
Rp845
(dp846
g28
Nsg29
Nsg30
S'suyuxin'
p847
sg32
Nsg33
Nsg34
Nsg35
Nsg36
Nsg37
Nsg38
Nsg39
Nsg40
Nsg41
Nsbsg42
S'3a6f6d87-5cc2-49a4-ba1a-219aaaec745a'
p848
sg44
Nsbag1
(g2
g3
Ntp849
Rp850
(dp851
g7
S'7\xd9Pa\xc5&_f\xb8\x10n\xf4\xe0\xa01\xbd'
p852
sg9
I1345898499000
sg10
I1345898499000
sg11
Nsg12
I335
sg13
S'During all phases of sleep, several changes in the air passages have been observ'
p853
sg15
S'b04a5825-1b8f-4f5d-98dc-34398a0c9089'
p854
sg17
S'<?xml version="1.0" encoding="UTF-8"?>\n<!DOCTYPE en-note SYSTEM "http://xml.evernote.com/pub/enml2.dtd">\n\n<en-note style="word-wrap: break-word; -webkit-nbsp-mode: space; -webkit-line-break: after-white-space;">\nDuring all phases of sleep, several changes in the air passages <font color="#E30000">have been observed</font>.\n</en-note>'
p855
sg19
Nsg20
I1067
sg21
Nsg22
I01
sg23
g1
(g24
g3
Ntp856
Rp857
(dp858
g28
Nsg29
Nsg30
S'suyuxin'
p859
sg32
Nsg33
Nsg34
Nsg35
Nsg36
Nsg37
Nsg38
Nsg39
Nsg40
Nsg41
Nsbsg42
S'e1142cad-1fcc-4252-839f-019a2ac7d850'
p860
sg44
Nsbag1
(g2
g3
Ntp861
Rp862
(dp863
g7
S'A\xce4\x1b\xfa\x96\xa67j\xf6`\xdbe\xde\r7'
p864
sg9
I1345898455000
sg10
I1345898434000
sg11
Nsg12
I409
sg13
S"There was correlation between the children's verbal skills at the time they firs"
p865
sg15
S'b04a5825-1b8f-4f5d-98dc-34398a0c9089'
p866
sg17
S'<?xml version="1.0" encoding="UTF-8"?>\n<!DOCTYPE en-note SYSTEM "http://xml.evernote.com/pub/enml2.dtd">\n\n<en-note style="word-wrap: break-word; -webkit-nbsp-mode: space; -webkit-line-break: after-white-space;"><div>There was <font color="#E30000">correlation between</font> the children&apos;s verbal skills at the time they first saw the event and their&nbsp;success on the later memory task</div></en-note>'
p867
sg19
Nsg20
I1068
sg21
Nsg22
I01
sg23
g1
(g24
g3
Ntp868
Rp869
(dp870
g28
Nsg29
Nsg30
S'suyuxin'
p871
sg32
Nsg33
Nsg34
Nsg35
Nsg36
Nsg37
Nsg38
Nsg39
Nsg40
Nsg41
Nsbsg42
S'61c08e29-2d7e-41fa-a5a3-a9a9b60aa924'
p872
sg44
Nsbag1
(g2
g3
Ntp873
Rp874
(dp875
g7
S'\xf1!\xc8*\x98Sg~\x8d,\x159d\xf7\x17\xae'
p876
sg9
I1345898392000
sg10
I1345898392000
sg11
Nsg12
I472
sg13
S'After 1815 improved transportation enabled more and more western farmers to esca'
p877
sg15
S'b04a5825-1b8f-4f5d-98dc-34398a0c9089'
p878
sg17
S'<?xml version="1.0" encoding="UTF-8"?>\n<!DOCTYPE en-note SYSTEM "http://xml.evernote.com/pub/enml2.dtd">\n\n<en-note style="word-wrap: break-word; -webkit-nbsp-mode: space; -webkit-line-break: after-white-space;"><div>After 1815 improved transportation <font color="#E30000">enabled</font> more and more&nbsp;western farmers to escape <font color="#D100FF">a self-sufficient way of life</font> and <font color="#3665EE">enter a national market economy</font></div></en-note>'
p879
sg19
Nsg20
I1069
sg21
Nsg22
I01
sg23
g1
(g24
g3
Ntp880
Rp881
(dp882
g28
Nsg29
Nsg30
S'suyuxin'
p883
sg32
Nsg33
Nsg34
Nsg35
Nsg36
Nsg37
Nsg38
Nsg39
Nsg40
Nsg41
Nsbsg42
S'15ea0d03-223d-4a39-b287-751959a67660'
p884
sg44
Nsbag1
(g2
g3
Ntp885
Rp886
(dp887
g7
S'\xccGX8-\xbb\xbfX\x8bqp<\x8b\x88\xcce'
p888
sg9
I1345898269000
sg10
I1345898269000
sg11
Nsg12
I425
sg13
S'Scientists had to do with the development of new models to mimic the growth of a'
p889
sg15
S'b04a5825-1b8f-4f5d-98dc-34398a0c9089'
p890
sg17
S'<?xml version="1.0" encoding="UTF-8"?>\n<!DOCTYPE en-note SYSTEM "http://xml.evernote.com/pub/enml2.dtd">\n\n<en-note style="word-wrap: break-word; -webkit-nbsp-mode: space; -webkit-line-break: after-white-space;"><div>Scientists had to <font color="#E30000">do with the development of</font> new models to&nbsp;mimic the growth of a network and to reproduce the structural properties observed in real topologies</div></en-note>'
p891
sg19
Nsg20
I1070
sg21
Nsg22
I01
sg23
g1
(g24
g3
Ntp892
Rp893
(dp894
g28
Nsg29
Nsg30
S'suyuxin'
p895
sg32
Nsg33
Nsg34
Nsg35
Nsg36
Nsg37
Nsg38
Nsg39
Nsg40
Nsg41
Nsbsg42
S'75877b05-1b50-42f1-9de3-2611af0a3746'
p896
sg44
Nsbag1
(g2
g3
Ntp897
Rp898
(dp899
g7
S'\xe1\x89,"\x9b\x02\xa6\xc0\xf9m\xad\xda\xcf\xc3%\xe9'
p900
sg9
I1345898230000
sg10
I1345898230000
sg11
Nsg12
I378
sg13
S'By far the most abundant form of geothermal energy occurs at the relatively low'
p901
sg15
S'b04a5825-1b8f-4f5d-98dc-34398a0c9089'
p902
sg17
S'<?xml version="1.0" encoding="UTF-8"?>\n<!DOCTYPE en-note SYSTEM "http://xml.evernote.com/pub/enml2.dtd">\n\n<en-note style="word-wrap: break-word; -webkit-nbsp-mode: space; -webkit-line-break: after-white-space;"><div><font color="#E30000">By far</font> the most abundant form of geothermal energy occurs at the relatively low temperatures of 80\xc2\xb0 to 180\xc2\xb0centigrade</div></en-note>'
p903
sg19
Nsg20
I1071
sg21
Nsg22
I01
sg23
g1
(g24
g3
Ntp904
Rp905
(dp906
g28
Nsg29
Nsg30
S'suyuxin'
p907
sg32
Nsg33
Nsg34
Nsg35
Nsg36
Nsg37
Nsg38
Nsg39
Nsg40
Nsg41
Nsbsg42
S'73849859-3ef0-457e-86ec-06d43d30d2be'
p908
sg44
Nsbag1
(g2
g3
Ntp909
Rp910
(dp911
g7
S'\xd0\xd7\x1ba\x95K\xc0\xae=\xbf\x0e\xa2Z-}2'
p912
sg9
I1345898178000
sg10
I1345898178000
sg11
Nsg12
I321
sg13
S'Think back to your childhood and try to identify your earliest memory'
p913
sg15
S'b04a5825-1b8f-4f5d-98dc-34398a0c9089'
p914
sg17
S'<?xml version="1.0" encoding="UTF-8"?>\n<!DOCTYPE en-note SYSTEM "http://xml.evernote.com/pub/enml2.dtd">\n\n<en-note style="word-wrap: break-word; -webkit-nbsp-mode: space; -webkit-line-break: after-white-space;">\nThink back to your childhood and try to <font color="#E30000">identify</font> your earliest memory\n</en-note>'
p915
sg19
Nsg20
I1072
sg21
Nsg22
I01
sg23
g1
(g24
g3
Ntp916
Rp917
(dp918
g28
Nsg29
Nsg30
S'suyuxin'
p919
sg32
Nsg33
Nsg34
Nsg35
Nsg36
Nsg37
Nsg38
Nsg39
Nsg40
Nsg41
Nsbsg42
S'126ad4d2-ccbb-45f9-b956-49feb065a9b7'
p920
sg44
Nsbag1
(g2
g3
Ntp921
Rp922
(dp923
g7
S'@\xea_\x07\xb1\x06\xb2\xbb^TANu\xf9\xc0h'
p924
sg9
I1345898138000
sg10
I1345898123000
sg11
Nsg12
I338
sg13
S'The first problem is that ecologists do not all agree what "stability" means'
p925
sg15
S'b04a5825-1b8f-4f5d-98dc-34398a0c9089'
p926
sg17
S'<?xml version="1.0" encoding="UTF-8"?>\n<!DOCTYPE en-note SYSTEM "http://xml.evernote.com/pub/enml2.dtd">\n\n<en-note style="word-wrap: break-word; -webkit-nbsp-mode: space; -webkit-line-break: after-white-space;">\nThe first problem is that ecologists <font color="#E30000">do not all agree</font> what &quot;stability&quot; means\n</en-note>'
p927
sg19
Nsg20
I1073
sg21
Nsg22
I01
sg23
g1
(g24
g3
Ntp928
Rp929
(dp930
g28
Nsg29
Nsg30
S'suyuxin'
p931
sg32
Nsg33
Nsg34
Nsg35
Nsg36
Nsg37
Nsg38
Nsg39
Nsg40
Nsg41
Nsbsg42
S'4a781ca0-3a40-4725-a2d8-7fb219e29b7d'
p932
sg44
Nsbag1
(g2
g3
Ntp933
Rp934
(dp935
g7
S'0a\x87\x14\xbe\xb3\xe2*Z\xbe\xb8\xdds\x9d\x88\xcd'
p936
sg9
I1345898076000
sg10
I1345898076000
sg11
Nsg12
I420
sg13
S'Another suggestion is that before children can talk about past events in their l'
p937
sg15
S'b04a5825-1b8f-4f5d-98dc-34398a0c9089'
p938
sg17
S'<?xml version="1.0" encoding="UTF-8"?>\n<!DOCTYPE en-note SYSTEM "http://xml.evernote.com/pub/enml2.dtd">\n\n<en-note style="word-wrap: break-word; -webkit-nbsp-mode: space; -webkit-line-break: after-white-space;">\nAnother suggestion is that before children can talk about past events in their lives, they need to have a <font color="#E30000">reasonable understanding</font> of the self as a psychological entity\n</en-note>'
p939
sg19
Nsg20
I1074
sg21
Nsg22
I01
sg23
g1
(g24
g3
Ntp940
Rp941
(dp942
g28
Nsg29
Nsg30
S'suyuxin'
p943
sg32
Nsg33
Nsg34
Nsg35
Nsg36
Nsg37
Nsg38
Nsg39
Nsg40
Nsg41
Nsbsg42
S'ef2a4365-57f1-4e50-8086-24df478cf279'
p944
sg44
Nsbag1
(g2
g3
Ntp945
Rp946
(dp947
g7
S'\xa1\x8bG\xbd6\xb3\xaf\x16\xad\xe3R&\xf1\x86p('
p948
sg9
I1345898028000
sg10
I1345898028000
sg11
Nsg12
I495
sg13
S'Organisms at this extreme are \xe2\x80\x9copportunists.\xe2\x80\x9d At the other extreme are \xe2\x80\x9ccompetit'
p949
sg15
S'b04a5825-1b8f-4f5d-98dc-34398a0c9089'
p950
sg17
S'<?xml version="1.0" encoding="UTF-8"?>\n<!DOCTYPE en-note SYSTEM "http://xml.evernote.com/pub/enml2.dtd">\n\n<en-note style="word-wrap: break-word; -webkit-nbsp-mode: space; -webkit-line-break: after-white-space;"><div>Organisms at this extreme are \xe2\x80\x9copportunists.\xe2\x80\x9d At the other extreme are \xe2\x80\x9ccompetitors,\xe2\x80\x9d almost all of whose&nbsp;resources <font color="#E30000">are invested in</font> building a huge body, <font color="#A600C4">with a bare minimum allocated to</font> reproduction.</div></en-note>'
p951
sg19
Nsg20
I1075
sg21
Nsg22
I01
sg23
g1
(g24
g3
Ntp952
Rp953
(dp954
g28
Nsg29
Nsg30
S'suyuxin'
p955
sg32
Nsg33
Nsg34
Nsg35
Nsg36
Nsg37
Nsg38
Nsg39
Nsg40
Nsg41
Nsbsg42
S'72cde614-3193-4268-a04b-923c746e1952'
p956
sg44
Nsbag1
(g2
g3
Ntp957
Rp958
(dp959
g7
S';z\xdc\xf4\x97;9A\xdc;Mf\x8fY\x83~'
p960
sg9
I1346725784000
sg10
I1345897911000
sg11
Nsg12
I410
sg13
S'Almost all of an organism\xe2\x80\x99s energy can be diverted to reproduction, with very li'
p961
sg15
S'b04a5825-1b8f-4f5d-98dc-34398a0c9089'
p962
sg17
S'<?xml version="1.0" encoding="UTF-8"?>\n<!DOCTYPE en-note SYSTEM "http://xml.evernote.com/pub/enml2.dtd">\n\n<en-note style="word-wrap: break-word; -webkit-nbsp-mode: space; -webkit-line-break: after-white-space;"><div>Almost all of an organism\xe2\x80\x99s energy <font color="#FF0000">can be diverted to</font> reproduction, with very little allocated to <font color="#D100FF">building</font> the&nbsp;body</div></en-note>'
p963
sg19
Nsg20
I1076
sg21
Nsg22
I01
sg23
g1
(g24
g3
Ntp964
Rp965
(dp966
g28
Nsg29
Nsg30
S'suyuxin'
p967
sg32
Nsg33
Nsg34
Nsg35
Nsg36
Nsg37
Nsg38
Nsg39
Nsg40
Nsg41
Nsbsg42
S'1917eacb-d0d5-4cc8-8136-794f7a6229c3'
p968
sg44
Nsbag1
(g2
g3
Ntp969
Rp970
(dp971
g7
S'\x84\x94p;5G\x9e\x07\x17\x90\x1f\x99%h\xb1M'
p972
sg9
I1345897848000
sg10
I1345897848000
sg11
Nsg12
I345
sg13
S'It could be argued, however, that these conditions are not sufficient to explain'
p973
sg15
S'b04a5825-1b8f-4f5d-98dc-34398a0c9089'
p974
sg17
S'<?xml version="1.0" encoding="UTF-8"?>\n<!DOCTYPE en-note SYSTEM "http://xml.evernote.com/pub/enml2.dtd">\n\n<en-note style="word-wrap: break-word; -webkit-nbsp-mode: space; -webkit-line-break: after-white-space;"><div>It could be argued, however, that these conditions are not sufficient&nbsp;to explain the origins of agriculture.</div></en-note>'
p975
sg19
Nsg20
I1077
sg21
Nsg22
I01
sg23
g1
(g24
g3
Ntp976
Rp977
(dp978
g28
Nsg29
Nsg30
S'suyuxin'
p979
sg32
Nsg33
Nsg34
Nsg35
Nsg36
Nsg37
Nsg38
Nsg39
Nsg40
Nsg41
Nsbsg42
S'c7e37c52-3567-4137-9e4b-483e4d0aa5dc'
p980
sg44
Nsbag1
(g2
g3
Ntp981
Rp982
(dp983
g7
S'\x9dl\x95\xe6\x1fn\x0cE\xbd\x92r#s\xbc\x068'
p984
sg9
I1345897800000
sg10
I1345897800000
sg11
Nsg12
I408
sg13
S'Architecture is the art and science of designing structures that organize and en'
p985
sg15
S'b04a5825-1b8f-4f5d-98dc-34398a0c9089'
p986
sg17
S'<?xml version="1.0" encoding="UTF-8"?>\n<!DOCTYPE en-note SYSTEM "http://xml.evernote.com/pub/enml2.dtd">\n\n<en-note style="word-wrap: break-word; -webkit-nbsp-mode: space; -webkit-line-break: after-white-space;">\nArchitecture is <font color="#E30000">the art and science</font> of designing structures that organize and enclose spaces for <font color="#A600C4">practical and symbolic purposes</font></en-note>'
p987
sg19
Nsg20
I1078
sg21
Nsg22
I01
sg23
g1
(g24
g3
Ntp988
Rp989
(dp990
g28
Nsg29
Nsg30
S'suyuxin'
p991
sg32
Nsg33
Nsg34
Nsg35
Nsg36
Nsg37
Nsg38
Nsg39
Nsg40
Nsg41
Nsbsg42
S'027fb3bd-4333-4a1d-a793-8e62c8b3c64d'
p992
sg44
Nsbag1
(g2
g3
Ntp993
Rp994
(dp995
g7
S'zs\xb87\x93C\x81\xb5W\x8f0\xb6\xa2&a`'
p996
sg9
I1345897772000
sg10
I1345897735000
sg11
Nsg12
I422
sg13
S'Of all the visual arts, architecture affects our life most directly for it deter'
p997
sg15
S'b04a5825-1b8f-4f5d-98dc-34398a0c9089'
p998
sg17
S'<?xml version="1.0" encoding="UTF-8"?>\n<!DOCTYPE en-note SYSTEM "http://xml.evernote.com/pub/enml2.dtd">\n\n<en-note style="word-wrap: break-word; -webkit-nbsp-mode: space; -webkit-line-break: after-white-space;">\nOf all the visual arts, architecture <font color="#E30000">affects our life</font> most directly for it <font color="#D100FF">determines the character</font> of human environment in major ways.&nbsp;\n</en-note>'
p999
sg19
Nsg20
I1079
sg21
Nsg22
I01
sg23
g1
(g24
g3
Ntp1000
Rp1001
(dp1002
g28
Nsg29
Nsg30
S'suyuxin'
p1003
sg32
Nsg33
Nsg34
Nsg35
Nsg36
Nsg37
Nsg38
Nsg39
Nsg40
Nsg41
Nsbsg42
S'07267c0c-87fb-4e83-8b43-a5ace56c32d1'
p1004
sg44
Nsbag1
(g2
g3
Ntp1005
Rp1006
(dp1007
g7
S':\xdf\x8e\xbaZH\xc9F\xe9y\xd7R\xcbE(\xdc'
p1008
sg9
I1346726674000
sg10
I1345897685000
sg11
Nsg12
I427
sg13
S'The age of Australia\xe2\x80\x99s rock art is constantly being revised, and earlier datings'
p1009
sg15
S'b04a5825-1b8f-4f5d-98dc-34398a0c9089'
p1010
sg17
S'<?xml version="1.0" encoding="UTF-8"?>\n<!DOCTYPE en-note SYSTEM "http://xml.evernote.com/pub/enml2.dtd">\n\n<en-note style="word-wrap: break-word; -webkit-nbsp-mode: space; -webkit-line-break: after-white-space;"><div>The age of Australia\xe2\x80\x99s rock art <font color="#D100FF">is constantly being revised</font>, and earlier datings <font color="#E30000">have been proposed as</font> the result of&nbsp;new discoveries</div></en-note>'
p1011
sg19
Nsg20
I1080
sg21
Nsg22
I01
sg23
g1
(g24
g3
Ntp1012
Rp1013
(dp1014
g28
Nsg29
Nsg30
S'suyuxin'
p1015
sg32
Nsg33
Nsg34
Nsg35
Nsg36
Nsg37
Nsg38
Nsg39
Nsg40
Nsg41
Nsbsg42
S'c8ad5d9c-d99d-440b-aefd-c13b2a122b7d'
p1016
sg44
Nsbag1
(g2
g3
Ntp1017
Rp1018
(dp1019
g7
S"\xa4\xe0'G\xb0S\x15\x83\x12\x1c`*\xea\\Ys"
p1020
sg9
I1345897643000
sg10
I1345897643000
sg11
Nsg12
I381
sg13
S'However, it should be kept in mind that many societies that knew of agriculture'
p1021
sg15
S'b04a5825-1b8f-4f5d-98dc-34398a0c9089'
p1022
sg17
S'<?xml version="1.0" encoding="UTF-8"?>\n<!DOCTYPE en-note SYSTEM "http://xml.evernote.com/pub/enml2.dtd">\n\n<en-note style="word-wrap: break-word; -webkit-nbsp-mode: space; -webkit-line-break: after-white-space;"><div>However, it should be <font color="#E30000">kept in mind</font> that many&nbsp;societies that knew of agriculture more or less consciously avoided it</div></en-note>'
p1023
sg19
Nsg20
I1081
sg21
Nsg22
I01
sg23
g1
(g24
g3
Ntp1024
Rp1025
(dp1026
g28
Nsg29
Nsg30
S'suyuxin'
p1027
sg32
Nsg33
Nsg34
Nsg35
Nsg36
Nsg37
Nsg38
Nsg39
Nsg40
Nsg41
Nsbsg42
S'19571975-e091-4d90-9a44-d5d7af883517'
p1028
sg44
Nsbag1
(g2
g3
Ntp1029
Rp1030
(dp1031
g7
S'\xaf\x04O\x95l\x04\xe1\x8b_)"\x92\xaa\xda\x03\xe3'
p1032
sg9
I1345897598000
sg10
I1345897598000
sg11
Nsg12
I433
sg13
S'However, even children with low verbal skills show evidence of remembering the e'
p1033
sg15
S'b04a5825-1b8f-4f5d-98dc-34398a0c9089'
p1034
sg17
S'<?xml version="1.0" encoding="UTF-8"?>\n<!DOCTYPE en-note SYSTEM "http://xml.evernote.com/pub/enml2.dtd">\n\n<en-note style="word-wrap: break-word; -webkit-nbsp-mode: space; -webkit-line-break: after-white-space;"><div>However, even children with low verbal skills <font color="#FF0000">show evidence of</font> remembering the&nbsp;event; thus, memories may be facilitated by but are not dependent on those verbal skills</div></en-note>'
p1035
sg19
Nsg20
I1082
sg21
Nsg22
I01
sg23
g1
(g24
g3
Ntp1036
Rp1037
(dp1038
g28
Nsg29
Nsg30
S'suyuxin'
p1039
sg32
Nsg33
Nsg34
Nsg35
Nsg36
Nsg37
Nsg38
Nsg39
Nsg40
Nsg41
Nsbsg42
S'fa71e833-3898-4d93-bd28-2111a8c88753'
p1040
sg44
Nsbag1
(g2
g3
Ntp1041
Rp1042
(dp1043
g7
S'\xde\xbeW\x10\x11\xad\x05\xdc($^\xfb\t#\x13w'
p1044
sg9
I1345897554000
sg10
I1345897554000
sg11
Nsg12
I440
sg13
S'It subconsciously adjusts breathing rate and depth in order to regular the level'
p1045
sg15
S'b04a5825-1b8f-4f5d-98dc-34398a0c9089'
p1046
sg17
S'<?xml version="1.0" encoding="UTF-8"?>\n<!DOCTYPE en-note SYSTEM "http://xml.evernote.com/pub/enml2.dtd">\n\n<en-note style="word-wrap: break-word; -webkit-nbsp-mode: space; -webkit-line-break: after-white-space;">\nIt <font color="#D100FF">subconsciously</font> adjusts breathing rate and depth in order to <font color="#E30000">regular the level</font> of carbon dioxide (CO2) and oxygen (O2), and the acid-base ratio in the blood.\n</en-note>'
p1047
sg19
Nsg20
I1083
sg21
Nsg22
I01
sg23
g1
(g24
g3
Ntp1048
Rp1049
(dp1050
g28
Nsg29
Nsg30
S'suyuxin'
p1051
sg32
Nsg33
Nsg34
Nsg35
Nsg36
Nsg37
Nsg38
Nsg39
Nsg40
Nsg41
Nsbsg42
S'3da68a66-18a4-46c7-84c9-fcd60aa24fca'
p1052
sg44
Nsbag1
(g2
g3
Ntp1053
Rp1054
(dp1055
g7
S'\xbb\xa4\xc7\xaa\x140\x1e\xf6\xbb\xea6V\xc7\x12Y\xcb'
p1056
sg9
I1345897496000
sg10
I1345897496000
sg11
Nsg12
I365
sg13
S'During the first great wave of migration. Emigration to the West reached a peak'
p1057
sg15
S'b04a5825-1b8f-4f5d-98dc-34398a0c9089'
p1058
sg17
S'<?xml version="1.0" encoding="UTF-8"?>\n<!DOCTYPE en-note SYSTEM "http://xml.evernote.com/pub/enml2.dtd">\n\n<en-note style="word-wrap: break-word; -webkit-nbsp-mode: space; -webkit-line-break: after-white-space;"><div>During the first great wave of migration.&nbsp;Emigration to the West <font color="#E30000">reached a peak</font> in the 1830&apos;s.</div></en-note>'
p1059
sg19
Nsg20
I1084
sg21
Nsg22
I01
sg23
g1
(g24
g3
Ntp1060
Rp1061
(dp1062
g28
Nsg29
Nsg30
S'suyuxin'
p1063
sg32
Nsg33
Nsg34
Nsg35
Nsg36
Nsg37
Nsg38
Nsg39
Nsg40
Nsg41
Nsbsg42
S'5f86f9d7-fd05-42b6-8304-8cca309a160a'
p1064
sg44
Nsbag1
(g2
g3
Ntp1065
Rp1066
(dp1067
g7
S':\xab%\xab\xa5s\xc8DkB\xf8\x06\x8e\xc82q'
p1068
sg9
I1345897420000
sg10
I1345897420000
sg11
Nsg12
I373
sg13
S'In that case, climax community would be the most fragile and the least stable, s'
p1069
sg15
S'b04a5825-1b8f-4f5d-98dc-34398a0c9089'
p1070
sg17
S'<?xml version="1.0" encoding="UTF-8"?>\n<!DOCTYPE en-note SYSTEM "http://xml.evernote.com/pub/enml2.dtd">\n\n<en-note style="word-wrap: break-word; -webkit-nbsp-mode: space; -webkit-line-break: after-white-space;">\nIn that case, climax community would be the most fragile and the least stable, since they can require hundreds of years to return to the climax state.\n</en-note>'
p1071
sg19
Nsg20
I1085
sg21
Nsg22
I01
sg23
g1
(g24
g3
Ntp1072
Rp1073
(dp1074
g28
Nsg29
Nsg30
S'suyuxin'
p1075
sg32
Nsg33
Nsg34
Nsg35
Nsg36
Nsg37
Nsg38
Nsg39
Nsg40
Nsg41
Nsbsg42
S'8a33ee26-7e32-4715-acaf-57ec1a33a806'
p1076
sg44
Nsbag1
(g2
g3
Ntp1077
Rp1078
(dp1079
g7
S'ej\xa7N\xd2\x1c\xbd\xa7.\xe5~J\xc5\x91\x0f\x85'
p1080
sg9
I1345897388000
sg10
I1345897388000
sg11
Nsg12
I564
sg13
S'In that means, the climax community would be considered as the most stable, sinc'
p1081
sg15
S'b04a5825-1b8f-4f5d-98dc-34398a0c9089'
p1082
sg17
S'<?xml version="1.0" encoding="UTF-8"?>\n<!DOCTYPE en-note SYSTEM "http://xml.evernote.com/pub/enml2.dtd">\n\n<en-note style="word-wrap: break-word; -webkit-nbsp-mode: space; -webkit-line-break: after-white-space;">\nIn that means, the climax community would be considered as the most stable, since by the definition, they change the least over time. <font color="#E30000">Alternatively</font>, stability can be defined as <font color="#A600C4">the speed with</font> which a ecosystem return to a particular form following a major disturbance, such as a fire\n</en-note>'
p1083
sg19
Nsg20
I1086
sg21
Nsg22
I01
sg23
g1
(g24
g3
Ntp1084
Rp1085
(dp1086
g28
Nsg29
Nsg30
S'suyuxin'
p1087
sg32
Nsg33
Nsg34
Nsg35
Nsg36
Nsg37
Nsg38
Nsg39
Nsg40
Nsg41
Nsbsg42
S'c265dcb7-511a-434d-8813-267fc9206aa4'
p1088
sg44
Nsbag1
(g2
g3
Ntp1089
Rp1090
(dp1091
g7
S'U=\x15PT&\xaa\xb5u~\xaf\xef\xb0\xdeM\xe0'
p1092
sg9
I1345897322000
sg10
I1345897322000
sg11
Nsg12
I438
sg13
S'Of all the physiological differences in human sleep compared with wakefulness th'
p1093
sg15
S'b04a5825-1b8f-4f5d-98dc-34398a0c9089'
p1094
sg17
S'<?xml version="1.0" encoding="UTF-8"?>\n<!DOCTYPE en-note SYSTEM "http://xml.evernote.com/pub/enml2.dtd">\n\n<en-note style="word-wrap: break-word; -webkit-nbsp-mode: space; -webkit-line-break: after-white-space;"><div>Of all the physiological differences in human sleep compared with wakefulness that <font color="#E30000">have been discovered in</font> the last&nbsp;decade, changes in respiratory control are most dramatic</div></en-note>'
p1095
sg19
Nsg20
I1087
sg21
Nsg22
I01
sg23
g1
(g24
g3
Ntp1096
Rp1097
(dp1098
g28
Nsg29
Nsg30
S'suyuxin'
p1099
sg32
Nsg33
Nsg34
Nsg35
Nsg36
Nsg37
Nsg38
Nsg39
Nsg40
Nsg41
Nsbsg42
S'72e3f4a5-78d6-42c3-963b-694ec18bddb4'
p1100
sg44
Nsbag1
(g2
g3
Ntp1101
Rp1102
(dp1103
g7
S"\x94?\xa9+M9;is'\x9di\xd3\xdc%@"
p1104
sg9
I1345897272000
sg10
I1345897272000
sg11
Nsg12
I397
sg13
S'By whatever means, a lake is constantly gaining water and losing water: its wate'
p1105
sg15
S'b04a5825-1b8f-4f5d-98dc-34398a0c9089'
p1106
sg17
S'<?xml version="1.0" encoding="UTF-8"?>\n<!DOCTYPE en-note SYSTEM "http://xml.evernote.com/pub/enml2.dtd">\n\n<en-note style="word-wrap: break-word; -webkit-nbsp-mode: space; -webkit-line-break: after-white-space;"><div>By whatever means, a lake is constantly gaining water and losing water: its water does not just <font color="#E30000">sit</font> there, or, anyway,&nbsp;not for long</div></en-note>'
p1107
sg19
Nsg20
I1088
sg21
Nsg22
I01
sg23
g1
(g24
g3
Ntp1108
Rp1109
(dp1110
g28
Nsg29
Nsg30
S'suyuxin'
p1111
sg32
Nsg33
Nsg34
Nsg35
Nsg36
Nsg37
Nsg38
Nsg39
Nsg40
Nsg41
Nsbsg42
S'59c5b0a5-5bc7-4482-87e5-9855f3ac9a26'
p1112
sg44
Nsbag1
(g2
g3
Ntp1113
Rp1114
(dp1115
g7
S'<\xc2`bL\xc3h\xe0iPGi\xabx\x1b\x08'
p1116
sg9
I1345897057000
sg10
I1345897057000
sg11
Nsg12
I347
sg13
S'The most significant data have come from a concentration on three major question'
p1117
sg15
S'b04a5825-1b8f-4f5d-98dc-34398a0c9089'
p1118
sg17
S'<?xml version="1.0" encoding="UTF-8"?>\n<!DOCTYPE en-note SYSTEM "http://xml.evernote.com/pub/enml2.dtd">\n\n<en-note style="word-wrap: break-word; -webkit-nbsp-mode: space; -webkit-line-break: after-white-space;"><div>The most significant data have come from a <font color="#E30000">concentration on</font>&nbsp;three major questions</div></en-note>'
p1119
sg19
Nsg20
I1089
sg21
Nsg22
I01
sg23
g1
(g24
g3
Ntp1120
Rp1121
(dp1122
g28
Nsg29
Nsg30
S'suyuxin'
p1123
sg32
Nsg33
Nsg34
Nsg35
Nsg36
Nsg37
Nsg38
Nsg39
Nsg40
Nsg41
Nsbsg42
S'2f01c92e-9545-4c5c-9110-9fa2070e45f2'
p1124
sg44
Nsbag1
(g2
g3
Ntp1125
Rp1126
(dp1127
g7
S'h\xc3pL\xd9V\x89\xe4GxN\x93/\x06X\x0f'
p1128
sg9
I1345896999000
sg10
I1345896984000
sg11
Nsg12
I439
sg13
S'These empirical findings have initiated a revival of network modelling, since th'
p1129
sg15
S'b04a5825-1b8f-4f5d-98dc-34398a0c9089'
p1130
sg17
S'<?xml version="1.0" encoding="UTF-8"?>\n<!DOCTYPE en-note SYSTEM "http://xml.evernote.com/pub/enml2.dtd">\n\n<en-note style="word-wrap: break-word; -webkit-nbsp-mode: space; -webkit-line-break: after-white-space;"><div>These empirical findings have <font color="#E30000">initiated</font> a revival of network modelling, since the models proposed in mathematical&nbsp;graph theory turned out to be very far from the real needs.</div></en-note>'
p1131
sg19
Nsg20
I1090
sg21
Nsg22
I01
sg23
g1
(g24
g3
Ntp1132
Rp1133
(dp1134
g28
Nsg29
Nsg30
S'suyuxin'
p1135
sg32
Nsg33
Nsg34
Nsg35
Nsg36
Nsg37
Nsg38
Nsg39
Nsg40
Nsg41
Nsbsg42
S'9a029bd4-cd90-42ff-940e-361e25d7bfc1'
p1136
sg44
Nsbag1
(g2
g3
Ntp1137
Rp1138
(dp1139
g7
S')im\xc21\x9b\x86\xcf7\xfb\xed\x87\x10Y\xb8\x08'
p1140
sg9
I1345896917000
sg10
I1345896906000
sg11
Nsg12
I358
sg13
S'The client who pays for the building and defines its function is an important me'
p1141
sg15
S'b04a5825-1b8f-4f5d-98dc-34398a0c9089'
p1142
sg17
S'<?xml version="1.0" encoding="UTF-8"?>\n<!DOCTYPE en-note SYSTEM "http://xml.evernote.com/pub/enml2.dtd">\n\n<en-note style="word-wrap: break-word; -webkit-nbsp-mode: space; -webkit-line-break: after-white-space;">\nThe client who pays for the building and <font color="#E30000">defines its function</font> is an important member of architectural team\n</en-note>'
p1143
sg19
Nsg20
I1091
sg21
Nsg22
I01
sg23
g1
(g24
g3
Ntp1144
Rp1145
(dp1146
g28
Nsg29
Nsg30
S'suyuxin'
p1147
sg32
Nsg33
Nsg34
Nsg35
Nsg36
Nsg37
Nsg38
Nsg39
Nsg40
Nsg41
Nsbsg42
S'a87087e7-b1e2-4f12-9be3-7452ffdcf63e'
p1148
sg44
Nsbag1
(g2
g3
Ntp1149
Rp1150
(dp1151
g7
S'\x93\xa9g\xa9\xe8\xbcNcx\x9a\x84v\xd8\xe1&\x8b'
p1152
sg9
I1345896873000
sg10
I1345896858000
sg11
Nsg12
I376
sg13
S'It is the work of architects to create buildings that are not only a simple cons'
p1153
sg15
S'b04a5825-1b8f-4f5d-98dc-34398a0c9089'
p1154
sg17
S'<?xml version="1.0" encoding="UTF-8"?>\n<!DOCTYPE en-note SYSTEM "http://xml.evernote.com/pub/enml2.dtd">\n\n<en-note style="word-wrap: break-word; -webkit-nbsp-mode: space; -webkit-line-break: after-white-space;">\nIt is the work of architects to create buildings that are not only a simple construction, but offer <font color="#E30000">inspiration and delight</font>.\n</en-note>'
p1155
sg19
Nsg20
I1092
sg21
Nsg22
I01
sg23
g1
(g24
g3
Ntp1156
Rp1157
(dp1158
g28
Nsg29
Nsg30
S'suyuxin'
p1159
sg32
Nsg33
Nsg34
Nsg35
Nsg36
Nsg37
Nsg38
Nsg39
Nsg40
Nsg41
Nsbsg42
S'0cb6e3ea-e05c-4842-8669-d73809e30c76'
p1160
sg44
Nsbag1
(g2
g3
Ntp1161
Rp1162
(dp1163
g7
S'\xc4\x0e\x862\xb5G,\xa5\x88o\xaag\x193\xdd\x83'
p1164
sg9
I1345896810000
sg10
I1345896719000
sg11
Nsg12
I341
sg13
S'To be architecture, a building must achieve a working harmony with a variety of'
p1165
sg15
S'b04a5825-1b8f-4f5d-98dc-34398a0c9089'
p1166
sg17
S'<?xml version="1.0" encoding="UTF-8"?>\n<!DOCTYPE en-note SYSTEM "http://xml.evernote.com/pub/enml2.dtd">\n\n<en-note style="word-wrap: break-word; -webkit-nbsp-mode: space; -webkit-line-break: after-white-space;">\nTo be architecture, a building must achieve a <font color="#E30000">working harmony with</font> a variety of elements.\n</en-note>'
p1167
sg19
Nsg20
I1093
sg21
Nsg22
I01
sg23
g1
(g24
g3
Ntp1168
Rp1169
(dp1170
g28
Nsg29
Nsg30
S'suyuxin'
p1171
sg32
Nsg33
Nsg34
Nsg35
Nsg36
Nsg37
Nsg38
Nsg39
Nsg40
Nsg41
Nsbsg42
S'6b8cb4d5-3626-44e0-8898-2df29dd98072'
p1172
sg44
Nsbag1
(g2
g3
Ntp1173
Rp1174
(dp1175
g7
S'\xcazf#\xf4\xa9?\xc5\xb8;.\xfeP~\xd6,'
p1176
sg9
I1347446041000
sg10
I1345896652000
sg11
Nsg12
I659
sg13
S'In order to increase production on existing land, the peasants made more use of'
p1177
sg15
S'b04a5825-1b8f-4f5d-98dc-34398a0c9089'
p1178
sg17
S'<?xml version="1.0" encoding="UTF-8"?>\n<!DOCTYPE en-note SYSTEM "http://xml.evernote.com/pub/enml2.dtd">\n\n<en-note style="word-wrap: break-word; -webkit-nbsp-mode: space; -webkit-line-break: after-white-space;"><div>In order to increase production on existing land, the peasants <font color="#FF0000">made more use of</font> crop rotation and, in&nbsp;particular, began to apply animal waste to the soil regularly, rather than leaving the fertilization process up to the&nbsp;grazing livestock.</div><div><br/></div><div><br/></div><div>Note: v: &nbsp;graze: if a animal graze, or if you graze it, it eats grass that is growing</div><div><br/></div></en-note>'
p1179
sg19
Nsg20
I1094
sg21
Nsg22
I01
sg23
g1
(g24
g3
Ntp1180
Rp1181
(dp1182
g28
Nsg29
Nsg30
S'suyuxin'
p1183
sg32
Nsg33
Nsg34
Nsg35
Nsg36
Nsg37
Nsg38
Nsg39
Nsg40
Nsg41
Nsbsg42
S'67d73cab-df0c-4cdf-b517-1401ce9e714f'
p1184
sg44
Nsbag1
(g2
g3
Ntp1185
Rp1186
(dp1187
g7
S'\xc2n\xa96\xe0\x8e\x91\xe2WWl\xb0R]\x17\xba'
p1188
sg9
I1345896597000
sg10
I1345896597000
sg11
Nsg12
I370
sg13
S"A fifteen-speed racing bicycle is more likely to break down than a child's tricy"
p1189
sg15
S'b04a5825-1b8f-4f5d-98dc-34398a0c9089'
p1190
sg17
S'<?xml version="1.0" encoding="UTF-8"?>\n<!DOCTYPE en-note SYSTEM "http://xml.evernote.com/pub/enml2.dtd">\n\n<en-note style="word-wrap: break-word; -webkit-nbsp-mode: space; -webkit-line-break: after-white-space;">\nA <font color="#FF0000">fifteen-speed racing bicycle</font> is more likely to break down than a <font color="#D100FF">child&apos;s tricycle</font>.\n</en-note>'
p1191
sg19
Nsg20
I1095
sg21
Nsg22
I01
sg23
g1
(g24
g3
Ntp1192
Rp1193
(dp1194
g28
Nsg29
Nsg30
S'suyuxin'
p1195
sg32
Nsg33
Nsg34
Nsg35
Nsg36
Nsg37
Nsg38
Nsg39
Nsg40
Nsg41
Nsbsg42
S'83d50207-ad96-48b9-8fc5-c633b3fb17c0'
p1196
sg44
Nsbag1
(g2
g3
Ntp1197
Rp1198
(dp1199
g7
S"\xbd\xd6$?\xff\x97'\xbe\xf7\x08\xc4\xc3%\x88\xf9\xb0"
p1200
sg9
I1345895801000
sg10
I1345895801000
sg11
Nsg12
I382
sg13
S'Mathematical model of ecosystem likewise suggested that species diversity does n'
p1201
sg15
S'b04a5825-1b8f-4f5d-98dc-34398a0c9089'
p1202
sg17
S'<?xml version="1.0" encoding="UTF-8"?>\n<!DOCTYPE en-note SYSTEM "http://xml.evernote.com/pub/enml2.dtd">\n\n<en-note style="word-wrap: break-word; -webkit-nbsp-mode: space; -webkit-line-break: after-white-space;"><font color="#E30000">Mathematical model</font> of ecosystem likewise suggested that species diversity <font color="#A600C4">does not guarantee</font> stability\n</en-note>'
p1203
sg19
Nsg20
I1096
sg21
Nsg22
I01
sg23
g1
(g24
g3
Ntp1204
Rp1205
(dp1206
g28
Nsg29
Nsg30
S'suyuxin'
p1207
sg32
Nsg33
Nsg34
Nsg35
Nsg36
Nsg37
Nsg38
Nsg39
Nsg40
Nsg41
Nsbsg42
S'ef8f365d-8828-471b-9792-4a60f55c812b'
p1208
sg44
Nsbag1
(g2
g3
Ntp1209
Rp1210
(dp1211
g7
S'\xce\xdfq\x13\n\x99F,\xfe\x89qxk\xd9d\x96'
p1212
sg9
I1345895755000
sg10
I1345895755000
sg11
Nsg12
I390
sg13
S'Even that kind of stability defined as simply lack of change is not always assoc'
p1213
sg15
S'b04a5825-1b8f-4f5d-98dc-34398a0c9089'
p1214
sg17
S'<?xml version="1.0" encoding="UTF-8"?>\n<!DOCTYPE en-note SYSTEM "http://xml.evernote.com/pub/enml2.dtd">\n\n<en-note style="word-wrap: break-word; -webkit-nbsp-mode: space; -webkit-line-break: after-white-space;">\nEven that kind of stability <font color="#E30000">defined as</font> simply lack of change <font color="#A600C4">is not always associated with</font> maximum diversity.\n</en-note>'
p1215
sg19
Nsg20
I1097
sg21
Nsg22
I01
sg23
g1
(g24
g3
Ntp1216
Rp1217
(dp1218
g28
Nsg29
Nsg30
S'suyuxin'
p1219
sg32
Nsg33
Nsg34
Nsg35
Nsg36
Nsg37
Nsg38
Nsg39
Nsg40
Nsg41
Nsbsg42
S'506e0d7e-3a68-4a54-ae83-f12b1b27b2be'
p1220
sg44
Nsbag1
(g2
g3
Ntp1221
Rp1222
(dp1223
g7
S'\x89\t\x1dQV\xca\x02k\x0f\xc8\x973\xb1\xfd\x82j'
p1224
sg9
I1345895718000
sg10
I1345895718000
sg11
Nsg12
I342
sg13
S'A more complicated ecosystem is in general, more likely than a simple system to'
p1225
sg15
S'b04a5825-1b8f-4f5d-98dc-34398a0c9089'
p1226
sg17
S'<?xml version="1.0" encoding="UTF-8"?>\n<!DOCTYPE en-note SYSTEM "http://xml.evernote.com/pub/enml2.dtd">\n\n<en-note style="word-wrap: break-word; -webkit-nbsp-mode: space; -webkit-line-break: after-white-space;">\nA more complicated ecosystem is in general, <font color="#E30000">more likely</font> than a simple system to break down\n</en-note>'
p1227
sg19
Nsg20
I1098
sg21
Nsg22
I01
sg23
g1
(g24
g3
Ntp1228
Rp1229
(dp1230
g28
Nsg29
Nsg30
S'suyuxin'
p1231
sg32
Nsg33
Nsg34
Nsg35
Nsg36
Nsg37
Nsg38
Nsg39
Nsg40
Nsg41
Nsbsg42
S'717aab8f-e723-4da7-8bf2-f1bef6ec1a85'
p1232
sg44
Nsbag1
(g2
g3
Ntp1233
Rp1234
(dp1235
g7
S'v\xcfXs\x87\xe6\x94\xf7\xec\x01\xcfm\xb4}\x81\xe4'
p1236
sg9
I1345895632000
sg10
I1345895601000
sg11
Nsg12
I572
sg13
S'Dutch agriculture was modernized and commercialized, new crops and agricultural'
p1237
sg15
S'b04a5825-1b8f-4f5d-98dc-34398a0c9089'
p1238
sg17
S'<?xml version="1.0" encoding="UTF-8"?>\n<!DOCTYPE en-note SYSTEM "http://xml.evernote.com/pub/enml2.dtd">\n\n<en-note style="word-wrap: break-word; -webkit-nbsp-mode: space; -webkit-line-break: after-white-space;"><div>Dutch agriculture was modernized and commercialized, new crops and agricultural techniques <font color="#E30000">raise the level of production</font> so that they were <font color="#A600C4">in line with market demands</font>, and cheap grain was imported annually from the Baltic&nbsp;region <font color="#3665EE">in large quantities</font></div></en-note>'
p1239
sg19
Nsg20
I1099
sg21
Nsg22
I01
sg23
g1
(g24
g3
Ntp1240
Rp1241
(dp1242
g28
Nsg29
Nsg30
S'suyuxin'
p1243
sg32
Nsg33
Nsg34
Nsg35
Nsg36
Nsg37
Nsg38
Nsg39
Nsg40
Nsg41
Nsbsg42
S'93815fbd-0587-4d28-aa61-b948536a4a34'
p1244
sg44
Nsbag1
(g2
g3
Ntp1245
Rp1246
(dp1247
g7
S'\xf2\xb1\xf6\xd3i\xbd\xe7\xa5\x8dI\xc90\xe1>\xb8\xa8'
p1248
sg9
I1345895499000
sg10
I1345895469000
sg11
Nsg12
I508
sg13
S'Once all this information has been gathered, it becomes possible to judge whethe'
p1249
sg15
S'b04a5825-1b8f-4f5d-98dc-34398a0c9089'
p1250
sg17
S'<?xml version="1.0" encoding="UTF-8"?>\n<!DOCTYPE en-note SYSTEM "http://xml.evernote.com/pub/enml2.dtd">\n\n<en-note style="word-wrap: break-word; -webkit-nbsp-mode: space; -webkit-line-break: after-white-space;"><div><font color="#E30000">Once all</font> this information <font color="#A600C4">has been gathered</font>, it becomes possible to <font color="#3665EE">judge whether</font> a lake\xe2\x80\x99s flow is mainly due to its&nbsp;surface inputs and outputs or to its underground inputs and outputs</div></en-note>'
p1251
sg19
Nsg20
I1100
sg21
Nsg22
I01
sg23
g1
(g24
g3
Ntp1252
Rp1253
(dp1254
g28
Nsg29
Nsg30
S'suyuxin'
p1255
sg32
Nsg33
Nsg34
Nsg35
Nsg36
Nsg37
Nsg38
Nsg39
Nsg40
Nsg41
Nsbsg42
S'cf9cdd55-7aef-4389-9287-a23481c7df62'
p1256
sg44
Nsbag1
(g2
g3
Ntp1257
Rp1258
(dp1259
g7
S"\xe5\xd8i\xc6\xa7\x1b\x8c\xee\xa0\xcd=\x14\xd3(\xe8'"
p1260
sg9
I1345895276000
sg10
I1345895243000
sg11
Nsg12
I531
sg13
S'Modern architectural forms generally have three separated components comparable'
p1261
sg15
S'b04a5825-1b8f-4f5d-98dc-34398a0c9089'
p1262
sg17
S'<?xml version="1.0" encoding="UTF-8"?>\n<!DOCTYPE en-note SYSTEM "http://xml.evernote.com/pub/enml2.dtd">\n\n<en-note style="word-wrap: break-word; -webkit-nbsp-mode: space; -webkit-line-break: after-white-space;">\nModern architectural forms generally <font color="#FF0000">have three separated components</font> <font color="#A600C4">comparable to elements of human body</font>: a supporting skeleton or frame, an outer skin enclosing the interior spaces and equipment similar to the body&apos;s virtal organs and systems.\n</en-note>'
p1263
sg19
Nsg20
I1101
sg21
Nsg22
I01
sg23
g1
(g24
g3
Ntp1264
Rp1265
(dp1266
g28
Nsg29
Nsg30
S'suyuxin'
p1267
sg32
Nsg33
Nsg34
Nsg35
Nsg36
Nsg37
Nsg38
Nsg39
Nsg40
Nsg41
Nsbsg42
S'b3b3f944-9aa8-4f82-89fe-63f0dc57a3db'
p1268
sg44
Nsbag1
(g2
g3
Ntp1269
Rp1270
(dp1271
g7
S'\xc2\xe7uO6s\x8b\xb3A\\$"\x1e%wl'
p1272
sg9
I1345895215000
sg10
I1345895198000
sg11
Nsg12
I450
sg13
S'The massive and comparable analysis of networks from different fields has produc'
p1273
sg15
S'b04a5825-1b8f-4f5d-98dc-34398a0c9089'
p1274
sg17
S'<?xml version="1.0" encoding="UTF-8"?>\n<!DOCTYPE en-note SYSTEM "http://xml.evernote.com/pub/enml2.dtd">\n\n<en-note style="word-wrap: break-word; -webkit-nbsp-mode: space; -webkit-line-break: after-white-space;"><div>The <font color="#E30000">massive and comparable</font> analysis of networks from different fields <font color="#D100FF">has produced</font> <font color="#3665EE">a series of</font> unexpected and&nbsp;dramatic results</div></en-note>'
p1275
sg19
Nsg20
I1102
sg21
Nsg22
I01
sg23
g1
(g24
g3
Ntp1276
Rp1277
(dp1278
g28
Nsg29
Nsg30
S'suyuxin'
p1279
sg32
Nsg33
Nsg34
Nsg35
Nsg36
Nsg37
Nsg38
Nsg39
Nsg40
Nsg41
Nsbsg42
S'f9f2892a-cc39-421f-9569-dabf0c789300'
p1280
sg44
Nsbag1
(g2
g3
Ntp1281
Rp1282
(dp1283
g7
S'\x05i\x00\xddsk\x0c\x87\xd0\x81\xcc$\xe6xd\xf3'
p1284
sg9
I1345895148000
sg10
I1345895134000
sg11
Nsg12
I487
sg13
S'it causes dissolved chemicals to become increasingly concentrated, and this, in'
p1285
sg15
S'b04a5825-1b8f-4f5d-98dc-34398a0c9089'
p1286
sg17
S'<?xml version="1.0" encoding="UTF-8"?>\n<!DOCTYPE en-note SYSTEM "http://xml.evernote.com/pub/enml2.dtd">\n\n<en-note style="word-wrap: break-word; -webkit-nbsp-mode: space; -webkit-line-break: after-white-space;"><div>it causes <font color="#D100FF">dissolved chemicals</font> to become increasingly <font color="#E30000">concentrated</font>, and this, <font color="#5898FF">in turn</font>, has a <font color="#41AD1C">marked effect</font> on all living things in the lake.</div></en-note>'
p1287
sg19
Nsg20
I1103
sg21
Nsg22
I01
sg23
g1
(g24
g3
Ntp1288
Rp1289
(dp1290
g28
Nsg29
Nsg30
S'suyuxin'
p1291
sg32
Nsg33
Nsg34
Nsg35
Nsg36
Nsg37
Nsg38
Nsg39
Nsg40
Nsg41
Nsbsg42
S'9963a906-43b9-4280-ac39-c8788fc4583f'
p1292
sg44
Nsbag1
(g2
g3
Ntp1293
Rp1294
(dp1295
g7
S'?\x19\xcc\xb5\x10"\xa1\xd7\x98\xb6n\xd9\x19b\x9f\x0c'
p1296
sg9
I1345895085000
sg10
I1345895080000
sg11
Nsg12
I449
sg13
S'Climatic changes at the end of the glacial period 13,000 years ago have been pro'
p1297
sg15
S'b04a5825-1b8f-4f5d-98dc-34398a0c9089'
p1298
sg17
S'<?xml version="1.0" encoding="UTF-8"?>\n<!DOCTYPE en-note SYSTEM "http://xml.evernote.com/pub/enml2.dtd">\n\n<en-note style="word-wrap: break-word; -webkit-nbsp-mode: space; -webkit-line-break: after-white-space;"><div>Climatic changes at the end of the <font color="#3665EE">glacial period</font> 13,000 years ago <font color="#FF0000">have been proposed to</font> account for <font color="#D100FF">the&nbsp;emergence of</font> farming</div></en-note>'
p1299
sg19
Nsg20
I1104
sg21
Nsg22
I01
sg23
g1
(g24
g3
Ntp1300
Rp1301
(dp1302
g28
Nsg29
Nsg30
S'suyuxin'
p1303
sg32
Nsg33
Nsg34
Nsg35
Nsg36
Nsg37
Nsg38
Nsg39
Nsg40
Nsg41
Nsbsg42
S'7ad38b58-3e9c-4677-af35-09549353006c'
p1304
sg44
Nsbag1
(g2
g3
Ntp1305
Rp1306
(dp1307
g7
S'\x05e\xeb,7\xb1#j\xf1\xf6J\xc4\x9b\xc0\x14\x9c'
p1308
sg9
I1345895015000
sg10
I1345894996000
sg11
Nsg12
I461
sg13
S"No doubt the ability to talk about one's past represents memory of a different l"
p1309
sg15
S'b04a5825-1b8f-4f5d-98dc-34398a0c9089'
p1310
sg17
S'<?xml version="1.0" encoding="UTF-8"?>\n<!DOCTYPE en-note SYSTEM "http://xml.evernote.com/pub/enml2.dtd">\n\n<en-note style="word-wrap: break-word; -webkit-nbsp-mode: space; -webkit-line-break: after-white-space;"><div><font color="#FF0000">No doubt</font> the ability to talk about one&apos;s past <font color="#D100FF">represents</font> memory of <font color="#3665EE">a&nbsp;different level of complexity</font> than simple recognition or recall</div></en-note>'
p1311
sg19
Nsg20
I1105
sg21
Nsg22
I01
sg23
g1
(g24
g3
Ntp1312
Rp1313
(dp1314
g28
Nsg29
Nsg30
S'suyuxin'
p1315
sg32
Nsg33
Nsg34
Nsg35
Nsg36
Nsg37
Nsg38
Nsg39
Nsg40
Nsg41
Nsbsg42
S'64a1cf95-4456-404e-96e2-fb6be15dd675'
p1316
sg44
Nsbag1
(g2
g3
Ntp1317
Rp1318
(dp1319
g7
S'[\xd2S\xb0wc%\xda646#f\x95\x19\xf8'
p1320
sg9
I1349693832000
sg10
I1345894931000
sg11
Nsg12
I382
sg13
S'Also there is a regular cycle of change in resistance between the two sides of t'
p1321
sg15
S'b04a5825-1b8f-4f5d-98dc-34398a0c9089'
p1322
sg17
S'<?xml version="1.0" encoding="UTF-8"?>\n<!DOCTYPE en-note SYSTEM "http://xml.evernote.com/pub/enml2.dtd">\n\n<en-note style="word-wrap: break-word; -webkit-nbsp-mode: space; -webkit-line-break: after-white-space;"><div>Also there&nbsp;is <font color="#FF0000">a regular cycle of</font> change <font color="#D100FF">in resistance</font> between the two sides of the nose</div></en-note>'
p1323
sg19
Nsg20
I1106
sg21
Nsg22
I01
sg23
g1
(g24
g3
Ntp1324
Rp1325
(dp1326
g28
Nsg29
Nsg30
S'suyuxin'
p1327
sg32
Nsg33
Nsg34
Nsg35
Nsg36
Nsg37
Nsg38
Nsg39
Nsg40
Nsg41
Nsbsg42
S'8f3b2f9b-36bf-44f2-a5a5-3f3752365c49'
p1328
sg44
Nsbag1
(g2
g3
Ntp1329
Rp1330
(dp1331
g7
S'+\xa2\xfb\xe0rH\xc6o\x0fu*s\xcc\xf5\x06\xb2'
p1332
sg9
I1345894878000
sg10
I1345894878000
sg11
Nsg12
I454
sg13
S'During wakefulness, breathing is controlled by two interacting systems. The firs'
p1333
sg15
S'b04a5825-1b8f-4f5d-98dc-34398a0c9089'
p1334
sg17
S'<?xml version="1.0" encoding="UTF-8"?>\n<!DOCTYPE en-note SYSTEM "http://xml.evernote.com/pub/enml2.dtd">\n\n<en-note style="word-wrap: break-word; -webkit-nbsp-mode: space; -webkit-line-break: after-white-space;"><div>During wakefulness, breathing <font color="#D100FF">is controlled by</font> two interacting systems. The first is an automatic, metabolic system&nbsp;whose control <font color="#FF0000">is centered in</font> the brain stem</div></en-note>'
p1335
sg19
Nsg20
I1107
sg21
Nsg22
I01
sg23
g1
(g24
g3
Ntp1336
Rp1337
(dp1338
g28
Nsg29
Nsg30
S'suyuxin'
p1339
sg32
Nsg33
Nsg34
Nsg35
Nsg36
Nsg37
Nsg38
Nsg39
Nsg40
Nsg41
Nsbsg42
S'957f2e7a-0345-437f-9c3a-9df691b57005'
p1340
sg44
Nsbag1
(g2
g3
Ntp1341
Rp1342
(dp1343
g7
S'\xe6\xdb\xa2\xa9A\x8aO\xe1<m\x82;U3F1'
p1344
sg9
I1345894815000
sg10
I1345894815000
sg11
Nsg12
I481
sg13
S'They are designed to withstand the forces of compression(pushing together), tens'
p1345
sg15
S'b04a5825-1b8f-4f5d-98dc-34398a0c9089'
p1346
sg17
S'<?xml version="1.0" encoding="UTF-8"?>\n<!DOCTYPE en-note SYSTEM "http://xml.evernote.com/pub/enml2.dtd">\n\n<en-note style="word-wrap: break-word; -webkit-nbsp-mode: space; -webkit-line-break: after-white-space;">\nThey <font color="#FF0000">are designed to</font> <font color="#A600C4">withstand</font> the forces of compression(pushing together), tension(pull parts), blending, or <font color="#3665EE">a combination of</font> these in different parts of structure.&nbsp;\n</en-note>'
p1347
sg19
Nsg20
I1108
sg21
Nsg22
I01
sg23
g1
(g24
g3
Ntp1348
Rp1349
(dp1350
g28
Nsg29
Nsg30
S'suyuxin'
p1351
sg32
Nsg33
Nsg34
Nsg35
Nsg36
Nsg37
Nsg38
Nsg39
Nsg40
Nsg41
Nsbsg42
S'f0feae86-cba7-4193-8681-8005974f1c8b'
p1352
sg44
Nsbag1
(g2
g3
Ntp1353
Rp1354
(dp1355
g7
S';\x040\xa8\xac\xb6\x88A\xdd\xb1hF\xefk\x87\xf0'
p1356
sg9
I1345894770000
sg10
I1345894770000
sg11
Nsg12
I378
sg13
S'The structure can be analyzed in terms of how they dealt with downward forces cr'
p1357
sg15
S'b04a5825-1b8f-4f5d-98dc-34398a0c9089'
p1358
sg17
S'<?xml version="1.0" encoding="UTF-8"?>\n<!DOCTYPE en-note SYSTEM "http://xml.evernote.com/pub/enml2.dtd">\n\n<en-note style="word-wrap: break-word; -webkit-nbsp-mode: space; -webkit-line-break: after-white-space;">\nThe structure can <font color="#FF0000">be analyzed in terms of</font> how they <font color="#D100FF">dealt with</font> downward forces created by gravity.\n</en-note>'
p1359
sg19
Nsg20
I1109
sg21
Nsg22
I01
sg23
g1
(g24
g3
Ntp1360
Rp1361
(dp1362
g28
Nsg29
Nsg30
S'suyuxin'
p1363
sg32
Nsg33
Nsg34
Nsg35
Nsg36
Nsg37
Nsg38
Nsg39
Nsg40
Nsg41
Nsbsg42
S'0f1a9964-9ca7-4795-9791-38283d4110e6'
p1364
sg44
Nsbag1
(g2
g3
Ntp1365
Rp1366
(dp1367
g7
S'\xa4vG&\x84b\xbf\x19\xf0\\\xbb\xca\xb9\x1c\x8c\x16'
p1368
sg9
I1345894735000
sg10
I1345894735000
sg11
Nsg12
I368
sg13
S"The world's architectural buildings have also been devised in relation to the ob"
p1369
sg15
S'b04a5825-1b8f-4f5d-98dc-34398a0c9089'
p1370
sg17
S'<?xml version="1.0" encoding="UTF-8"?>\n<!DOCTYPE en-note SYSTEM "http://xml.evernote.com/pub/enml2.dtd">\n\n<en-note style="word-wrap: break-word; -webkit-nbsp-mode: space; -webkit-line-break: after-white-space;">\nThe world&apos;s architectural buildings have also been <font color="#FF0000">devised in relation to</font> the objective limitation of material.\n</en-note>'
p1371
sg19
Nsg20
I1110
sg21
Nsg22
I01
sg23
g1
(g24
g3
Ntp1372
Rp1373
(dp1374
g28
Nsg29
Nsg30
S'suyuxin'
p1375
sg32
Nsg33
Nsg34
Nsg35
Nsg36
Nsg37
Nsg38
Nsg39
Nsg40
Nsg41
Nsbsg42
S'6d5edbd0-2d83-4e66-9fd4-21a62ad35a8f'
p1376
sg44
Nsbag1
(g2
g3
Ntp1377
Rp1378
(dp1379
g7
S'\xc5\x10\\\x94\xd8\xe7\x0c\x80\xce\xb7mX1\xb3\xa3\\'
p1380
sg9
I1345894707000
sg10
I1345894659000
sg11
Nsg12
I592
sg13
S'In order for structures to achieve the size and strength to meet its purposes, a'
p1381
sg15
S'b04a5825-1b8f-4f5d-98dc-34398a0c9089'
p1382
sg17
S'<?xml version="1.0" encoding="UTF-8"?>\n<!DOCTYPE en-note SYSTEM "http://xml.evernote.com/pub/enml2.dtd">\n\n<en-note style="word-wrap: break-word; -webkit-nbsp-mode: space; -webkit-line-break: after-white-space;">\nIn order for structures to achieve the size and strength to <font color="#A600C4">meet its purposes</font>, architecture <font color="#FF0000">employs</font> methods of support that, because they are based on physical laws, have changed little since people first discovered them -- even while the building material <font color="#3665EE">have changed dramatically.</font></en-note>'
p1383
sg19
Nsg20
I1111
sg21
Nsg22
I01
sg23
g1
(g24
g3
Ntp1384
Rp1385
(dp1386
g28
Nsg29
Nsg30
S'suyuxin'
p1387
sg32
Nsg33
Nsg34
Nsg35
Nsg36
Nsg37
Nsg38
Nsg39
Nsg40
Nsg41
Nsbsg42
S'1d73768b-27b8-4776-8076-0be5d22666cc'
p1388
sg44
Nsbag1
(g2
g3
Ntp1389
Rp1390
(dp1391
g7
S"'\xc1/?C\xfd\xfde\xd6\xd5\xb3\xd0\x90a\xf70"
p1392
sg9
I1345894624000
sg10
I1345894624000
sg11
Nsg12
I549
sg13
S'In early times, it is necessary to design structural systems suitable for the ma'
p1393
sg15
S'b04a5825-1b8f-4f5d-98dc-34398a0c9089'
p1394
sg17
S'<?xml version="1.0" encoding="UTF-8"?>\n<!DOCTYPE en-note SYSTEM "http://xml.evernote.com/pub/enml2.dtd">\n\n<en-note style="word-wrap: break-word; -webkit-nbsp-mode: space; -webkit-line-break: after-white-space;">\nIn early times, it is necessary to design structural systems <font color="#E30000">suitable for</font> the material that are available, such as wood, stone and brick. Today technology <font color="#D100FF">has progressed to the point</font> where it is possible to invent new material to suit for the type of structure desired\n</en-note>'
p1395
sg19
Nsg20
I1112
sg21
Nsg22
I01
sg23
g1
(g24
g3
Ntp1396
Rp1397
(dp1398
g28
Nsg29
Nsg30
S'suyuxin'
p1399
sg32
Nsg33
Nsg34
Nsg35
Nsg36
Nsg37
Nsg38
Nsg39
Nsg40
Nsg41
Nsbsg42
S'ded3a557-3ebb-4e24-b92e-369ae8e03f03'
p1400
sg44
Nsbag1
(g2
g3
Ntp1401
Rp1402
(dp1403
g7
S'\xff\x9b\xd9B\x8dr8p3\xf7\xb8\xc0\xe7\xa4\xf4a'
p1404
sg9
I1345894575000
sg10
I1345894575000
sg11
Nsg12
I492
sg13
S'Even the development in architecture has been the result of major technological'
p1405
sg15
S'b04a5825-1b8f-4f5d-98dc-34398a0c9089'
p1406
sg17
S'<?xml version="1.0" encoding="UTF-8"?>\n<!DOCTYPE en-note SYSTEM "http://xml.evernote.com/pub/enml2.dtd">\n\n<en-note style="word-wrap: break-word; -webkit-nbsp-mode: space; -webkit-line-break: after-white-space;">\nEven the development in architecture has <font color="#E30000">been the result of</font> major technological changes. Materials and <font color="#D100FF">methods of construction</font> are <font color="#7600D8">integral parts of</font> design of architecture structures\n</en-note>'
p1407
sg19
Nsg20
I1113
sg21
Nsg22
I01
sg23
g1
(g24
g3
Ntp1408
Rp1409
(dp1410
g28
Nsg29
Nsg30
S'suyuxin'
p1411
sg32
Nsg33
Nsg34
Nsg35
Nsg36
Nsg37
Nsg38
Nsg39
Nsg40
Nsg41
Nsbsg42
S'7d66b613-0d01-4939-b08c-49292b175f41'
p1412
sg44
Nsbag1
(g2
g3
Ntp1413
Rp1414
(dp1415
g7
S'\xa6\x18c\x91,<\x04\xf7\xfd\xc1\xc5\xe3\x99\x0e\xc5\xd8'
p1416
sg9
I1345894527000
sg10
I1345894527000
sg11
Nsg12
I463
sg13
S'Progress in this area can be measured by the difference in weight between buildi'
p1417
sg15
S'b04a5825-1b8f-4f5d-98dc-34398a0c9089'
p1418
sg17
S'<?xml version="1.0" encoding="UTF-8"?>\n<!DOCTYPE en-note SYSTEM "http://xml.evernote.com/pub/enml2.dtd">\n\n<en-note style="word-wrap: break-word; -webkit-nbsp-mode: space; -webkit-line-break: after-white-space;">\nProgress in this area can <font color="#E30000">be measured by the difference</font> <font color="#D100FF">in weight between</font> buildings built today and those of <font color="#3665EE">comparable size</font> built one hundred years ago.\n</en-note>'
p1419
sg19
Nsg20
I1114
sg21
Nsg22
I01
sg23
g1
(g24
g3
Ntp1420
Rp1421
(dp1422
g28
Nsg29
Nsg30
S'suyuxin'
p1423
sg32
Nsg33
Nsg34
Nsg35
Nsg36
Nsg37
Nsg38
Nsg39
Nsg40
Nsg41
Nsbsg42
S'c184ce8d-1ded-4173-9ef1-87d610fa4cb3'
p1424
sg44
Nsbag1
(g2
g3
Ntp1425
Rp1426
(dp1427
g7
S'\x05k\xb96\xbbw\xfe\xdf\xdb\xbeT\xa7\x94F\xca\xda'
p1428
sg9
I1345894293000
sg10
I1345894264000
sg11
Nsg12
I501
sg13
S'Enormous changes in material and techniques of construction with the last few ge'
p1429
sg15
S'b04a5825-1b8f-4f5d-98dc-34398a0c9089'
p1430
sg17
S'<?xml version="1.0" encoding="UTF-8"?>\n<!DOCTYPE en-note SYSTEM "http://xml.evernote.com/pub/enml2.dtd">\n\n<en-note style="word-wrap: break-word; -webkit-nbsp-mode: space; -webkit-line-break: after-white-space;">\nEnormous changes in material and <font color="#D100FF">techniques of construction</font> with the last few generations have made it possible to enclose space <font color="#E30000">with much greater ease</font> and speed and <font color="#3665EE">with a minimum of material</font></en-note>'
p1431
sg19
Nsg20
I1115
sg21
Nsg22
I01
sg23
g1
(g24
g3
Ntp1432
Rp1433
(dp1434
g28
Nsg29
Nsg30
S'suyuxin'
p1435
sg32
Nsg33
Nsg34
Nsg35
Nsg36
Nsg37
Nsg38
Nsg39
Nsg40
Nsg41
Nsbsg42
S'28524699-c06e-41bc-b3d2-a97084e9c27a'
p1436
sg44
Nsbag1
(g2
g3
Ntp1437
Rp1438
(dp1439
g7
S'R\xe3p\xf2\x85\x05^\x85\x0e\xdehE\xb8Z\x0e\xcf'
p1440
sg9
I1350653757000
sg10
I1345894171000
sg11
Nsg12
I414
sg13
S"We need to know what aspect of community is most important to community's resist"
p1441
sg15
S'b04a5825-1b8f-4f5d-98dc-34398a0c9089'
p1442
sg17
S'<?xml version="1.0" encoding="UTF-8"?>\n<!DOCTYPE en-note SYSTEM "http://xml.evernote.com/pub/enml2.dtd">\n\n<en-note style="word-wrap: break-word; -webkit-nbsp-mode: space; -webkit-line-break: after-white-space;">\nWe need to know <font color="#E30000">what aspect of</font> community is most important to community&apos;s <font color="#D100FF">resistance to destruction</font> and as well as its recovery.\n</en-note>'
p1443
sg19
Nsg20
I1116
sg21
Nsg22
I01
sg23
g1
(g24
g3
Ntp1444
Rp1445
(dp1446
g28
Nsg29
Nsg30
S'suyuxin'
p1447
sg32
Nsg33
Nsg34
Nsg35
Nsg36
Nsg37
Nsg38
Nsg39
Nsg40
Nsg41
Nsbsg42
S'47e33965-622f-474b-b03a-a6dddd75d1c9'
p1448
sg44
Nsbag1
(g2
g3
Ntp1449
Rp1450
(dp1451
g7
S')\xda\xb0\r\xc5y\xce\x85\xf5\xbd\xe1\x99\x8d\xff3\xd8'
p1452
sg9
I1350649584000
sg10
I1345894123000
sg11
Nsg12
I505
sg13
S'Ecologists are more interest to know what factor contribute to the resilience of'
p1453
sg15
S'b04a5825-1b8f-4f5d-98dc-34398a0c9089'
p1454
sg17
S'<?xml version="1.0" encoding="UTF-8"?>\n<!DOCTYPE en-note SYSTEM "http://xml.evernote.com/pub/enml2.dtd">\n\n<en-note style="word-wrap: break-word; -webkit-nbsp-mode: space; -webkit-line-break: after-white-space;">\nEcologists <font color="#E30000">are more interest to</font> know <font color="#D100FF">what factor contribute to</font> the resilience of community because climax communities all over the world are being severely damaged or destroyed by <font color="#3665EE">human activities</font></en-note>'
p1455
sg19
Nsg20
I1117
sg21
Nsg22
I01
sg23
g1
(g24
g3
Ntp1456
Rp1457
(dp1458
g28
Nsg29
Nsg30
S'suyuxin'
p1459
sg32
Nsg33
Nsg34
Nsg35
Nsg36
Nsg37
Nsg38
Nsg39
Nsg40
Nsg41
Nsbsg42
S'f896ed70-71a0-409a-9dca-15b1b868a623'
p1460
sg44
Nsbag1
(g2
g3
Ntp1461
Rp1462
(dp1463
g7
S'\xa2\xaf\xcevVI\x82\x1d\xb0\x14\x1ad1\xe8\xb41'
p1464
sg9
I1350649404000
sg10
I1345894026000
sg11
Nsg12
I499
sg13
S'This occurs because during NREM sleep the automatic, metabolic system has exclus'
p1465
sg15
S'b04a5825-1b8f-4f5d-98dc-34398a0c9089'
p1466
sg17
S'<?xml version="1.0" encoding="UTF-8"?>\n<!DOCTYPE en-note SYSTEM "http://xml.evernote.com/pub/enml2.dtd">\n\n<en-note style="word-wrap: break-word; -webkit-nbsp-mode: space; -webkit-line-break: after-white-space;"><div>This <font color="#E30000">occurs</font> because&nbsp;during NREM sleep the automatic, metabolic system has <font color="#D100FF">exclusive</font> <font color="#2D4FC9">control over</font> breathing and the body uses less oxygen&nbsp;and produces less carbon dioxide.</div></en-note>'
p1467
sg19
Nsg20
I1118
sg21
Nsg22
I01
sg23
g1
(g24
g3
Ntp1468
Rp1469
(dp1470
g28
Nsg29
Nsg30
S'suyuxin'
p1471
sg32
Nsg33
Nsg34
Nsg35
Nsg36
Nsg37
Nsg38
Nsg39
Nsg40
Nsg41
Nsbsg42
S'55f09306-f41f-4cba-8552-62dc2f50fe34'
p1472
sg44
Nsbag1
(g2
g3
Ntp1473
Rp1474
(dp1475
g7
S'\xb8P\xec\xa4w\x87\x84\n\xe9m\xcc\x96\xcabC\x92'
p1476
sg9
I1350649160000
sg10
I1345893936000
sg11
Nsg12
I672
sg13
S'Many ecologists now think that the relative long-term stability of climax commun'
p1477
sg15
S'b04a5825-1b8f-4f5d-98dc-34398a0c9089'
p1478
sg17
S'<?xml version="1.0" encoding="UTF-8"?>\n<!DOCTYPE en-note SYSTEM "http://xml.evernote.com/pub/enml2.dtd">\n\n<en-note style="word-wrap: break-word; -webkit-nbsp-mode: space; -webkit-line-break: after-white-space;">\nMany ecologists now think that the relative <font color="#E30000">long-term</font> stability of climax community come not from the diversity, but from &quot;patchiness&quot; environment, a environment <font color="#A600C4">varies from place to place</font> supports more kinds of organisms than the environment that is uniform. A local population <font color="#3665EE">going extinct</font> may be replaced by the immigration from adjacent community.\n</en-note>'
p1479
sg19
Nsg20
I1119
sg21
Nsg22
I01
sg23
g1
(g24
g3
Ntp1480
Rp1481
(dp1482
g28
Nsg29
Nsg30
S'suyuxin'
p1483
sg32
Nsg33
Nsg34
Nsg35
Nsg36
Nsg37
Nsg38
Nsg39
Nsg40
Nsg41
Nsbsg42
S'c59bffe2-5c0c-4972-89d5-e8db91a21843'
p1484
sg44
Nsbag1
(g2
g3
Ntp1485
Rp1486
(dp1487
g7
S'\x81U\xd1|l\xf2\xfa\xd5Y\xea\x10\x81\x9e\x99d\xca'
p1488
sg9
I1350649008000
sg10
I1345893463000
sg11
Nsg12
I289
sg13
S'The quantities involved are enormous.'
p1489
sg15
S'b04a5825-1b8f-4f5d-98dc-34398a0c9089'
p1490
sg17
S'<?xml version="1.0" encoding="UTF-8"?>\n<!DOCTYPE en-note SYSTEM "http://xml.evernote.com/pub/enml2.dtd">\n\n<en-note style="word-wrap: break-word; -webkit-nbsp-mode: space; -webkit-line-break: after-white-space;">\nThe quantities involved are <font color="#E30000">enormous</font>.\n</en-note>'
p1491
sg19
Nsg20
I1120
sg21
Nsg22
I01
sg23
g1
(g24
g3
Ntp1492
Rp1493
(dp1494
g28
Nsg29
Nsg30
S'suyuxin'
p1495
sg32
Nsg33
Nsg34
Nsg35
Nsg36
Nsg37
Nsg38
Nsg39
Nsg40
Nsg41
Nsbsg42
S'7e42161a-4ea5-4076-af53-6a32aa4d4e36'
p1496
sg44
Nsbag1
(g2
g3
Ntp1497
Rp1498
(dp1499
g7
S'2\xce\xb5(\x8b#h\xf4\xc9\xa4\xeb\x0fI\rp\xcc'
p1500
sg9
I1350648995000
sg10
I1345893433000
sg11
Nsg12
I383
sg13
S'Therefore, even without any industrial production of heat, an urban area tends t'
p1501
sg15
S'b04a5825-1b8f-4f5d-98dc-34398a0c9089'
p1502
sg17
S'<?xml version="1.0" encoding="UTF-8"?>\n<!DOCTYPE en-note SYSTEM "http://xml.evernote.com/pub/enml2.dtd">\n\n<en-note style="word-wrap: break-word; -webkit-nbsp-mode: space; -webkit-line-break: after-white-space;">\nTherefore, even without any <font color="#E30000">industrial production</font> of heat, an urban area tends to be warmer than the countryside that surrounds it.\n</en-note>'
p1503
sg19
Nsg20
I1121
sg21
Nsg22
I01
sg23
g1
(g24
g3
Ntp1504
Rp1505
(dp1506
g28
Nsg29
Nsg30
S'suyuxin'
p1507
sg32
Nsg33
Nsg34
Nsg35
Nsg36
Nsg37
Nsg38
Nsg39
Nsg40
Nsg41
Nsbsg42
S'8e02c735-044f-405a-aeb0-aa4602147097'
p1508
sg44
Nsbag1
(g2
g3
Ntp1509
Rp1510
(dp1511
g7
S'@@t\x015i\x0b\xc8\x85no\x8f\x85p\xa0b'
p1512
sg9
I1350648938000
sg10
I1345893305000
sg11
Nsg12
I553
sg13
S'The first is the heat capacity of the materials that constitute the city, which'
p1513
sg15
S'b04a5825-1b8f-4f5d-98dc-34398a0c9089'
p1514
sg17
S'<?xml version="1.0" encoding="UTF-8"?>\n<!DOCTYPE en-note SYSTEM "http://xml.evernote.com/pub/enml2.dtd">\n\n<en-note style="word-wrap: break-word; -webkit-nbsp-mode: space; -webkit-line-break: after-white-space;"><div>The first is the heat capacity of the materials that constitute the city, which is&nbsp;typically <font color="#E30000">dominated by</font> concrete and asphalt</div><div><br/></div><div>asphalt: a black sticky substance that became hard when it dried, used for making the surface of road.</div><div><br/></div><div><br/></div></en-note>'
p1515
sg19
Nsg20
I1122
sg21
Nsg22
I01
sg23
g1
(g24
g3
Ntp1516
Rp1517
(dp1518
g28
Nsg29
Nsg30
S'suyuxin'
p1519
sg32
Nsg33
Nsg34
Nsg35
Nsg36
Nsg37
Nsg38
Nsg39
Nsg40
Nsg41
Nsbsg42
S'e5cfff8b-5e04-4fc9-95a7-54415f41cc5b'
p1520
sg44
Nsbag1
(g2
g3
Ntp1521
Rp1522
(dp1523
g7
S'0\x06\x0c\xee\xae\xa4\x8a\xb6\xa7{\xccad\x00\x15\x06'
p1524
sg9
I1350567269000
sg10
I1345893251000
sg11
Nsg12
I321
sg13
S'The precise configuration of a heat island depends on several factors'
p1525
sg15
S'b04a5825-1b8f-4f5d-98dc-34398a0c9089'
p1526
sg17
S'<?xml version="1.0" encoding="UTF-8"?>\n<!DOCTYPE en-note SYSTEM "http://xml.evernote.com/pub/enml2.dtd">\n\n<en-note style="word-wrap: break-word; -webkit-nbsp-mode: space; -webkit-line-break: after-white-space;">\nThe <font color="#E30000">precise configuration</font> of a heat island depends on several factors\n</en-note>'
p1527
sg19
Nsg20
I1123
sg21
Nsg22
I01
sg23
g1
(g24
g3
Ntp1528
Rp1529
(dp1530
g28
Nsg29
Nsg30
S'suyuxin'
p1531
sg32
Nsg33
Nsg34
Nsg35
Nsg36
Nsg37
Nsg38
Nsg39
Nsg40
Nsg41
Nsbsg42
S'6044d20c-3281-4d0c-b770-8e5d9c9af115'
p1532
sg44
Nsbag1
(g2
g3
Ntp1533
Rp1534
(dp1535
g7
S'\xd4\x9ba\x01e\x94\x9br\x1c\xed|\x12o\x89v\x80'
p1536
sg9
I1350567554000
sg10
I1345893203000
sg11
Nsg12
I316
sg13
S'When a heat island is well developed, variations can be extreme.'
p1537
sg15
S'b04a5825-1b8f-4f5d-98dc-34398a0c9089'
p1538
sg17
S'<?xml version="1.0" encoding="UTF-8"?>\n<!DOCTYPE en-note SYSTEM "http://xml.evernote.com/pub/enml2.dtd">\n\n<en-note style="word-wrap: break-word; -webkit-nbsp-mode: space; -webkit-line-break: after-white-space;">\nWhen a heat island is well developed, <font color="#E30000">variations can be extreme</font>.\n</en-note>'
p1539
sg19
Nsg20
I1124
sg21
Nsg22
I01
sg23
g1
(g24
g3
Ntp1540
Rp1541
(dp1542
g28
Nsg29
Nsg30
S'suyuxin'
p1543
sg32
Nsg33
Nsg34
Nsg35
Nsg36
Nsg37
Nsg38
Nsg39
Nsg40
Nsg41
Nsbsg42
S'89f94921-83f8-42f4-96cf-5338bf956245'
p1544
sg44
Nsbag1
(g2
g3
Ntp1545
Rp1546
(dp1547
g7
S'(7|r\xe0\xc6\xe5\xdaa\xd0\xaaQ)%\x1fI'
p1548
sg9
I1350567244000
sg10
I1345879814000
sg11
Nsg12
I468
sg13
S'Once humans possessed such a mind, they were able to find an imaginative solutio'
p1549
sg15
S'b04a5825-1b8f-4f5d-98dc-34398a0c9089'
p1550
sg17
S'<?xml version="1.0" encoding="UTF-8"?>\n<!DOCTYPE en-note SYSTEM "http://xml.evernote.com/pub/enml2.dtd">\n\n<en-note style="word-wrap: break-word; -webkit-nbsp-mode: space; -webkit-line-break: after-white-space;"><div>Once humans <font color="#D100FF">possessed</font> such a mind, they were able to find an imaginative solution to a</div><div>situation of <font color="#E30000">severe economic crisis</font> such as the farming dilemma described earlier</div></en-note>'
p1551
sg19
Nsg20
I1125
sg21
Nsg22
I01
sg23
g1
(g24
g3
Ntp1552
Rp1553
(dp1554
g28
Nsg29
Nsg30
S'suyuxin'
p1555
sg32
Nsg33
Nsg34
Nsg35
Nsg36
Nsg37
Nsg38
Nsg39
Nsg40
Nsg41
Nsbsg42
S'242ea783-e873-43ed-9ea9-6058f89f63ca'
p1556
sg44
Nsbag1
(g2
g3
Ntp1557
Rp1558
(dp1559
g7
S'\xa8S\x89\xe3\xaac\xe8\x8fK\xc9\xc3\xa0\xd2w\xea\xc1'
p1560
sg9
I1349695049000
sg10
I1345879492000
sg11
Nsg12
I418
sg13
S'Apart from this, being able to give up labor-intensive grain production freed bo'
p1561
sg15
S'b04a5825-1b8f-4f5d-98dc-34398a0c9089'
p1562
sg17
S'<?xml version="1.0" encoding="UTF-8"?>\n<!DOCTYPE en-note SYSTEM "http://xml.evernote.com/pub/enml2.dtd">\n\n<en-note style="word-wrap: break-word; -webkit-nbsp-mode: space; -webkit-line-break: after-white-space;"><div>Apart from this, being able to give up labor-intensive grain production <font color="#E30000">freed</font> both the land and the workforce for&nbsp;more productive agricultural divisions</div></en-note>'
p1563
sg19
Nsg20
I1126
sg21
Nsg22
I01
sg23
g1
(g24
g3
Ntp1564
Rp1565
(dp1566
g28
Nsg29
Nsg30
S'suyuxin'
p1567
sg32
Nsg33
Nsg34
Nsg35
Nsg36
Nsg37
Nsg38
Nsg39
Nsg40
Nsg41
Nsbsg42
S'd3c164c0-8bab-418a-b0b1-25c2aadbed79'
p1568
sg44
Nsbag1
(g2
g3
Ntp1569
Rp1570
(dp1571
g7
S'\x98Z%0\xfd%\x1a\xd7\nI\x7f\xde\x84\x19\xb5 '
p1572
sg9
I1350566219000
sg10
I1345879165000
sg11
Nsg12
I393
sg13
S'The arch is among many important structural break-though that characterize the a'
p1573
sg15
S'b04a5825-1b8f-4f5d-98dc-34398a0c9089'
p1574
sg17
S'<?xml version="1.0" encoding="UTF-8"?>\n<!DOCTYPE en-note SYSTEM "http://xml.evernote.com/pub/enml2.dtd">\n\n<en-note style="word-wrap: break-word; -webkit-nbsp-mode: space; -webkit-line-break: after-white-space;">\nThe arch is among many important structural <font color="#E30000">break-though</font> that <font color="#D100FF">characterize</font> the architecture throughout centuries\n</en-note>'
p1575
sg19
Nsg20
I1127
sg21
Nsg22
I01
sg23
g1
(g24
g3
Ntp1576
Rp1577
(dp1578
g28
Nsg29
Nsg30
S'suyuxin'
p1579
sg32
Nsg33
Nsg34
Nsg35
Nsg36
Nsg37
Nsg38
Nsg39
Nsg40
Nsg41
Nsbsg42
S'79e59b80-569d-490e-acea-e415928d60d1'
p1580
sg44
Nsbag1
(g2
g3
Ntp1581
Rp1582
(dp1583
g7
S'\x99/\xfb\xeb\xaa\x92\xd0T2(#\x88\xac\xdc\x1dp'
p1584
sg9
I1350566844000
sg10
I1345878998000
sg11
Nsg12
I493
sg13
S'It works in compression to divert the weight from above it out to the sides, whe'
p1585
sg15
S'b04a5825-1b8f-4f5d-98dc-34398a0c9089'
p1586
sg17
S'<?xml version="1.0" encoding="UTF-8"?>\n<!DOCTYPE en-note SYSTEM "http://xml.evernote.com/pub/enml2.dtd">\n\n<en-note style="word-wrap: break-word; -webkit-nbsp-mode: space; -webkit-line-break: after-white-space;"><font color="#E30000">It works in compression</font> to <font color="#D100FF">divert the weight</font> from above it out to the sides, where the weight is borne to the vertical elements on neither sides of the arch\n<div><br/></div><div>borne: past participle of bear</div></en-note>'
p1587
sg19
Nsg20
I1128
sg21
Nsg22
I01
sg23
g1
(g24
g3
Ntp1588
Rp1589
(dp1590
g28
Nsg29
Nsg30
S'suyuxin'
p1591
sg32
Nsg33
Nsg34
Nsg35
Nsg36
Nsg37
Nsg38
Nsg39
Nsg40
Nsg41
Nsbsg42
S'de8c6785-a3e2-4b73-b010-2bef83d1ae02'
p1592
sg44
Nsbag1
(g2
g3
Ntp1593
Rp1594
(dp1595
g7
S'\xb8\xaf\x81\x8d\xfbl\xa8L\xcbA\x15\xe1 E\x91\x89'
p1596
sg9
I1350563686000
sg10
I1345878952000
sg11
Nsg12
I375
sg13
S'As a method of spanning space, the arch can support much greater weights than a'
p1597
sg15
S'b04a5825-1b8f-4f5d-98dc-34398a0c9089'
p1598
sg17
S'<?xml version="1.0" encoding="UTF-8"?>\n<!DOCTYPE en-note SYSTEM "http://xml.evernote.com/pub/enml2.dtd">\n\n<en-note style="word-wrap: break-word; -webkit-nbsp-mode: space; -webkit-line-break: after-white-space;"><font color="#FF0000">As a method of</font> spanning space, the arch can <font color="#D100FF">support much greater weights</font> than a horizontal beam\n</en-note>'
p1599
sg19
Nsg20
I1129
sg21
Nsg22
I01
sg23
g1
(g24
g3
Ntp1600
Rp1601
(dp1602
g28
Nsg29
Nsg30
S'suyuxin'
p1603
sg32
Nsg33
Nsg34
Nsg35
Nsg36
Nsg37
Nsg38
Nsg39
Nsg40
Nsg41
Nsbsg42
S'5eb8b01e-6ed2-4ba0-8bbe-6000ecfb5a44'
p1604
sg44
Nsbag1
(g2
g3
Ntp1605
Rp1606
(dp1607
g7
S'\x8f\xf5\xffv\xf4\x98\xc3\xbcj\x03{\xd5\xf8L\x96\xc6'
p1608
sg9
I1350563561000
sg10
I1345878909000
sg11
Nsg12
I451
sg13
S'A structural invention had to be made before the physical limitations of stone c'
p1609
sg15
S'b04a5825-1b8f-4f5d-98dc-34398a0c9089'
p1610
sg17
S'<?xml version="1.0" encoding="UTF-8"?>\n<!DOCTYPE en-note SYSTEM "http://xml.evernote.com/pub/enml2.dtd">\n\n<en-note style="word-wrap: break-word; -webkit-nbsp-mode: space; -webkit-line-break: after-white-space;">\nA <font color="#E30000">structural invention</font> had to be made before the <font color="#D100FF">physical limitations</font> of stone could <font color="#2D4FC9">be overcome</font> and new architectural form could be created.\n</en-note>'
p1611
sg19
Nsg20
I1130
sg21
Nsg22
I01
sg23
g1
(g24
g3
Ntp1612
Rp1613
(dp1614
g28
Nsg29
Nsg30
S'suyuxin'
p1615
sg32
Nsg33
Nsg34
Nsg35
Nsg36
Nsg37
Nsg38
Nsg39
Nsg40
Nsg41
Nsbsg42
S'88c0b150-9c66-4d00-b8da-5ef77eb07395'
p1616
sg44
Nsbag1
(g2
g3
Ntp1617
Rp1618
(dp1619
g7
S'\xda\xc0\xc4\xab7\x98j\xf1\xca\x1c\xc3h\xbd\x9b\x0e8'
p1620
sg9
I1350563356000
sg10
I1345878854000
sg11
Nsg12
I370
sg13
S"Much of world's great architecture has been constructed of stone, because its be"
p1621
sg15
S'b04a5825-1b8f-4f5d-98dc-34398a0c9089'
p1622
sg17
S'<?xml version="1.0" encoding="UTF-8"?>\n<!DOCTYPE en-note SYSTEM "http://xml.evernote.com/pub/enml2.dtd">\n\n<en-note style="word-wrap: break-word; -webkit-nbsp-mode: space; -webkit-line-break: after-white-space;">\nMuch of world&apos;s great architecture has <font color="#E30000">been constructed of</font> stone, because its beauty, permanence and availability\n</en-note>'
p1623
sg19
Nsg20
I1131
sg21
Nsg22
I01
sg23
g1
(g24
g3
Ntp1624
Rp1625
(dp1626
g28
Nsg29
Nsg30
S'suyuxin'
p1627
sg32
Nsg33
Nsg34
Nsg35
Nsg36
Nsg37
Nsg38
Nsg39
Nsg40
Nsg41
Nsbsg42
S'05b76726-d3a7-42d8-be20-9b797862b6b8'
p1628
sg44
Nsbag1
(g2
g3
Ntp1629
Rp1630
(dp1631
g7
S'\xcc\xa0~M\x93N\xc2\xfb/</6\xd4\xf6\x1e*'
p1632
sg9
I1350563402000
sg10
I1345878796000
sg11
Nsg12
I464
sg13
S'For example, during wakefulness there is an immediate, automatic, adaptive incre'
p1633
sg15
S'b04a5825-1b8f-4f5d-98dc-34398a0c9089'
p1634
sg17
S'<?xml version="1.0" encoding="UTF-8"?>\n<!DOCTYPE en-note SYSTEM "http://xml.evernote.com/pub/enml2.dtd">\n\n<en-note style="word-wrap: break-word; -webkit-nbsp-mode: space; -webkit-line-break: after-white-space;"><div>For example, during wakefulness&nbsp;there is an immediate, automatic, adaptive increase in <font color="#E30000">breathing effort</font> when inhaling is made more difficult (such as&nbsp;breathing through a restrictive face mask).</div></en-note>'
p1635
sg19
Nsg20
I1132
sg21
Nsg22
I01
sg23
g1
(g24
g3
Ntp1636
Rp1637
(dp1638
g28
Nsg29
Nsg30
S'suyuxin'
p1639
sg32
Nsg33
Nsg34
Nsg35
Nsg36
Nsg37
Nsg38
Nsg39
Nsg40
Nsg41
Nsbsg42
S'31190e65-79a2-4f10-ae90-e07f7c5179e4'
p1640
sg44
Nsbag1
(g2
g3
Ntp1641
Rp1642
(dp1643
g7
S'\x06\x13jw\x1bpNZo\xf47\x9d\x9e\xdc\x95m'
p1644
sg9
I1350563217000
sg10
I1345878730000
sg11
Nsg12
I465
sg13
S'Second, once sleep is fully obtained, there is an increase of carbon dioxide and'
p1645
sg15
S'b04a5825-1b8f-4f5d-98dc-34398a0c9089'
p1646
sg17
S'<?xml version="1.0" encoding="UTF-8"?>\n<!DOCTYPE en-note SYSTEM "http://xml.evernote.com/pub/enml2.dtd">\n\n<en-note style="word-wrap: break-word; -webkit-nbsp-mode: space; -webkit-line-break: after-white-space;"><div>Second, once sleep <font color="#E30000">is fully obtained</font>, there is <font color="#D100FF">an increase of</font>&nbsp;carbon dioxide and a decrease of oxygen in the blood that <font color="#7600D8">persists</font> during NREM.</div></en-note>'
p1647
sg19
Nsg20
I1133
sg21
Nsg22
I01
sg23
g1
(g24
g3
Ntp1648
Rp1649
(dp1650
g28
Nsg29
Nsg30
S'suyuxin'
p1651
sg32
Nsg33
Nsg34
Nsg35
Nsg36
Nsg37
Nsg38
Nsg39
Nsg40
Nsg41
Nsbsg42
S'441693db-ef14-463e-9b70-1b92b3a69808'
p1652
sg44
Nsbag1
(g2
g3
Ntp1653
Rp1654
(dp1655
g7
S'P\xce\x7f8b\x19\x15\xc6\xcb-EI\xc3\x0c\x9f\xfe'
p1656
sg9
I1349875807000
sg10
I1345878646000
sg11
Nsg12
I362
sg13
S'Other respiratory regulating mechanisms apparently cease functioning during slee'
p1657
sg15
S'b04a5825-1b8f-4f5d-98dc-34398a0c9089'
p1658
sg17
S'<?xml version="1.0" encoding="UTF-8"?>\n<!DOCTYPE en-note SYSTEM "http://xml.evernote.com/pub/enml2.dtd">\n\n<en-note style="word-wrap: break-word; -webkit-nbsp-mode: space; -webkit-line-break: after-white-space;">\nOther respiratory regulating mechanisms <font color="#E30000">apparently</font> <font color="#D100FF">cease functioning</font> during sleep\n</en-note>'
p1659
sg19
Nsg20
I1134
sg21
Nsg22
I01
sg23
g1
(g24
g3
Ntp1660
Rp1661
(dp1662
g28
Nsg29
Nsg30
S'suyuxin'
p1663
sg32
Nsg33
Nsg34
Nsg35
Nsg36
Nsg37
Nsg38
Nsg39
Nsg40
Nsg41
Nsbsg42
S'b733f0fa-fb1c-40ae-9442-a1c918444731'
p1664
sg44
Nsbag1
(g2
g3
Ntp1665
Rp1666
(dp1667
g7
S'\x9c&e\xe4-\x95\xb6\xda\xa1\xe5O\x19\xdc\xb5\xaar'
p1668
sg9
I1349875841000
sg10
I1345878594000
sg11
Nsg12
I414
sg13
S'Residence times vary enormously. They range from a few days for small lakes up t'
p1669
sg15
S'b04a5825-1b8f-4f5d-98dc-34398a0c9089'
p1670
sg17
S'<?xml version="1.0" encoding="UTF-8"?>\n<!DOCTYPE en-note SYSTEM "http://xml.evernote.com/pub/enml2.dtd">\n\n<en-note style="word-wrap: break-word; -webkit-nbsp-mode: space; -webkit-line-break: after-white-space;"><div>Residence times <font color="#D100FF">vary enormously</font>. They <font color="#E30000">range from</font> a few days for small lakes up to several hundred years for large&nbsp;ones;</div></en-note>'
p1671
sg19
Nsg20
I1135
sg21
Nsg22
I01
sg23
g1
(g24
g3
Ntp1672
Rp1673
(dp1674
g28
Nsg29
Nsg30
S'suyuxin'
p1675
sg32
Nsg33
Nsg34
Nsg35
Nsg36
Nsg37
Nsg38
Nsg39
Nsg40
Nsg41
Nsbsg42
S'966bc68f-40c6-4ec8-a647-72592fe6836a'
p1676
sg44
Nsbag1
(g2
g3
Ntp1677
Rp1678
(dp1679
g7
S"8\xff\xadDfG\xf11\xf0\xa0\xc2'eB\x8a\x9d"
p1680
sg9
I1349875909000
sg10
I1345878546000
sg11
Nsg12
I451
sg13
S'To take an extreme example, farmlands dominated by a single crop are so unstable'
p1681
sg15
S'b04a5825-1b8f-4f5d-98dc-34398a0c9089'
p1682
sg17
S'<?xml version="1.0" encoding="UTF-8"?>\n<!DOCTYPE en-note SYSTEM "http://xml.evernote.com/pub/enml2.dtd">\n\n<en-note style="word-wrap: break-word; -webkit-nbsp-mode: space; -webkit-line-break: after-white-space;"><font color="#E30000">To take an extreme example</font>, farmlands dominated by a single crop are so unstable that one year of bad weather or <font color="#D100FF">the invasion of</font> a single pest can destroy the entire crops\n</en-note>'
p1683
sg19
Nsg20
I1136
sg21
Nsg22
I01
sg23
g1
(g24
g3
Ntp1684
Rp1685
(dp1686
g28
Nsg29
Nsg30
S'suyuxin'
p1687
sg32
Nsg33
Nsg34
Nsg35
Nsg36
Nsg37
Nsg38
Nsg39
Nsg40
Nsg41
Nsbsg42
S'2b2bb600-3237-46b9-abf5-e5bbe6483356'
p1688
sg44
Nsbag1
(g2
g3
Ntp1689
Rp1690
(dp1691
g7
S'\x13\xed\x0c\xd2"G\xc0\xff_6<\xc4\x1c\'[Y'
p1692
sg9
I1349876061000
sg10
I1345878507000
sg11
Nsg12
I351
sg13
S'Ecologists concluded that the apparent stability of climax communities depended'
p1693
sg15
S'b04a5825-1b8f-4f5d-98dc-34398a0c9089'
p1694
sg17
S'<?xml version="1.0" encoding="UTF-8"?>\n<!DOCTYPE en-note SYSTEM "http://xml.evernote.com/pub/enml2.dtd">\n\n<en-note style="word-wrap: break-word; -webkit-nbsp-mode: space; -webkit-line-break: after-white-space;">\nEcologists <font color="#E30000">concluded</font> that the apparent stability of climax communities depended on their complexity\n</en-note>'
p1695
sg19
Nsg20
I1137
sg21
Nsg22
I01
sg23
g1
(g24
g3
Ntp1696
Rp1697
(dp1698
g28
Nsg29
Nsg30
S'suyuxin'
p1699
sg32
Nsg33
Nsg34
Nsg35
Nsg36
Nsg37
Nsg38
Nsg39
Nsg40
Nsg41
Nsbsg42
S'71c9b238-a21c-403a-a70b-5c47b0053e87'
p1700
sg44
Nsbag1
(g2
g3
Ntp1701
Rp1702
(dp1703
g7
S'\x06\x1f\xc8;\xae\xb8\x85h\xb1N\x9b/\x80f\x18\x9c'
p1704
sg9
I1349874354000
sg10
I1345877415000
sg11
Nsg12
I506
sg13
S'Support for this idea came from the observation that long-lasting climax communi'
p1705
sg15
S'b04a5825-1b8f-4f5d-98dc-34398a0c9089'
p1706
sg17
S'<?xml version="1.0" encoding="UTF-8"?>\n<!DOCTYPE en-note SYSTEM "http://xml.evernote.com/pub/enml2.dtd">\n\n<en-note style="word-wrap: break-word; -webkit-nbsp-mode: space; -webkit-line-break: after-white-space;"><font color="#E30000">Support for</font> this idea <font color="#D100FF">came from</font> <font color="#3665EE">the observation</font> that long-lasting climax community usually have more complex <font color="#1ECCFF">food webs</font> and more species diversity than pioneer community\n</en-note>'
p1707
sg19
Nsg20
I1138
sg21
Nsg22
I01
sg23
g1
(g24
g3
Ntp1708
Rp1709
(dp1710
g28
Nsg29
Nsg30
S'suyuxin'
p1711
sg32
Nsg33
Nsg34
Nsg35
Nsg36
Nsg37
Nsg38
Nsg39
Nsg40
Nsg41
Nsbsg42
S'ac01c38a-5f08-4327-b429-29790fea88d9'
p1712
sg44
Nsbag1
(g2
g3
Ntp1713
Rp1714
(dp1715
g7
S"o\xc8<\xe18\x9b\xa8\xf2D'X\x01\xf4\xdb+m"
p1716
sg9
I1349874666000
sg10
I1345877311000
sg11
Nsg12
I373
sg13
S'The result has been that the residence time of one of the lakes increased from 5'
p1717
sg15
S'b04a5825-1b8f-4f5d-98dc-34398a0c9089'
p1718
sg17
S'<?xml version="1.0" encoding="UTF-8"?>\n<!DOCTYPE en-note SYSTEM "http://xml.evernote.com/pub/enml2.dtd">\n\n<en-note style="word-wrap: break-word; -webkit-nbsp-mode: space; -webkit-line-break: after-white-space;">\nThe result has been that the residence time of one of the lakes <font color="#E30000">increased</font>&nbsp;from 5 to 18 years during the study period\n</en-note>'
p1719
sg19
Nsg20
I1139
sg21
Nsg22
I01
sg23
g1
(g24
g3
Ntp1720
Rp1721
(dp1722
g28
Nsg29
Nsg30
S'suyuxin'
p1723
sg32
Nsg33
Nsg34
Nsg35
Nsg36
Nsg37
Nsg38
Nsg39
Nsg40
Nsg41
Nsbsg42
S'6a9421a3-6d2e-4cc1-a81a-f0879d3b56d2'
p1724
sg44
Nsbag1
(g2
g3
Ntp1725
Rp1726
(dp1727
g7
S'\x19#S[\x83\x81^\xc0\x03*\x88\\\x8d\xd6\xfb\xba'
p1728
sg9
I1349874734000
sg10
I1345877213000
sg11
Nsg12
I313
sg13
S'This reflexive adjustment is totally absent during NREM sleep'
p1729
sg15
S'b04a5825-1b8f-4f5d-98dc-34398a0c9089'
p1730
sg17
S'<?xml version="1.0" encoding="UTF-8"?>\n<!DOCTYPE en-note SYSTEM "http://xml.evernote.com/pub/enml2.dtd">\n\n<en-note style="word-wrap: break-word; -webkit-nbsp-mode: space; -webkit-line-break: after-white-space;">\nThis reflexive adjustment <font color="#E30000">is totally absent</font> during NREM sleep\n</en-note>'
p1731
sg19
Nsg20
I1140
sg21
Nsg22
I01
sg23
g1
(g24
g3
Ntp1732
Rp1733
(dp1734
g28
Nsg29
Nsg30
S'suyuxin'
p1735
sg32
Nsg33
Nsg34
Nsg35
Nsg36
Nsg37
Nsg38
Nsg39
Nsg40
Nsg41
Nsbsg42
S'6c77e133-7885-49af-8723-dc6b350c683d'
p1736
sg44
Nsbag1
(g2
g3
Ntp1737
Rp1738
(dp1739
g7
S'\x02\xae\xc9\xa4\xb9\x91\xde4\x8c\x02\xb9$\x8bG\xeb\xc4'
p1740
sg9
I1349875717000
sg10
I1345877166000
sg11
Nsg12
I402
sg13
S'During the day, heat from the Sun can be conducted into these materials and stor'
p1741
sg15
S'b04a5825-1b8f-4f5d-98dc-34398a0c9089'
p1742
sg17
S'<?xml version="1.0" encoding="UTF-8"?>\n<!DOCTYPE en-note SYSTEM "http://xml.evernote.com/pub/enml2.dtd">\n\n<en-note style="word-wrap: break-word; -webkit-nbsp-mode: space; -webkit-line-break: after-white-space;"><div>During the day, heat from the Sun can <font color="#D100FF">be conducted into</font> these materials&nbsp;and stored\xe2\x80\x94 <font color="#E30000">to be released</font> at night</div></en-note>'
p1743
sg19
Nsg20
I1141
sg21
Nsg22
I01
sg23
g1
(g24
g3
Ntp1744
Rp1745
(dp1746
g28
Nsg29
Nsg30
S'suyuxin'
p1747
sg32
Nsg33
Nsg34
Nsg35
Nsg36
Nsg37
Nsg38
Nsg39
Nsg40
Nsg41
Nsbsg42
S'e7f1f393-3344-42c0-8f35-8658544a1089'
p1748
sg44
Nsbag1
(g2
g3
Ntp1749
Rp1750
(dp1751
g7
S'\xfb@+\xfe.\x06\x82+:\x12\x1b$\xf8}T\xf0'
p1752
sg9
I1349693181000
sg10
I1345876336000
sg11
Nsg12
I714
sg13
S'A daily input of water, food, and energy of various kinds is matched by an outpu'
p1753
sg15
S'b04a5825-1b8f-4f5d-98dc-34398a0c9089'
p1754
sg17
S'<?xml version="1.0" encoding="UTF-8" standalone="no"?>\n<!DOCTYPE en-note SYSTEM "http://xml.evernote.com/pub/enml2.dtd">\n<en-note style="word-wrap: break-word; -webkit-nbsp-mode: space; -webkit-line-break: after-white-space;">\n<div><font face="Georgia">A daily input of water, food,\xc2\xa0and energy of various kinds <font color="#D100FF">is matched by</font> an output of sewage, solid waste, air pollutants, energy, and materials that <font color="#E30000">have been transformed</font>\xc2\xa0in some way.</font></div>\n<div><font face="Georgia"><br/></font></div>\n<div><font face="Georgia">sewage: the mix of waste from human body or used water, that was carried away from house by pipes underground.</font></div>\n</en-note>\n'
p1755
sg19
Nsg20
I1142
sg21
Nsg22
I01
sg23
g1
(g24
g3
Ntp1756
Rp1757
(dp1758
g28
Nsg29
Nsg30
S'suyuxin'
p1759
sg32
Nsg33
Nsg34
Nsg35
Nsg36
Nsg37
Nsg38
Nsg39
Nsg40
Nsg41
Nsbsg42
S'fb23723b-5f58-4251-b57d-d2fc446edda5'
p1760
sg44
Nsbag1
(g2
g3
Ntp1761
Rp1762
(dp1763
g7
S'n\x10Y\x94\x90\xee\x0es{\x18AMM\x9a"A'
p1764
sg9
I1349874782000
sg10
I1345876261000
sg11
Nsg12
I442
sg13
S'There was also a demand among urban consumers for daily products such as butter'
p1765
sg15
S'b04a5825-1b8f-4f5d-98dc-34398a0c9089'
p1766
sg17
S'<?xml version="1.0" encoding="UTF-8"?>\n<!DOCTYPE en-note SYSTEM "http://xml.evernote.com/pub/enml2.dtd">\n\n<en-note style="word-wrap: break-word; -webkit-nbsp-mode: space; -webkit-line-break: after-white-space;">\nThere was also a <font color="#D100FF">demand among</font> urban consumers for <font color="#E30000">daily products</font> such as butter and cheese, which, in the sixteenth century, had become more expensive than grain\n</en-note>'
p1767
sg19
Nsg20
I1143
sg21
Nsg22
I01
sg23
g1
(g24
g3
Ntp1768
Rp1769
(dp1770
g28
Nsg29
Nsg30
S'suyuxin'
p1771
sg32
Nsg33
Nsg34
Nsg35
Nsg36
Nsg37
Nsg38
Nsg39
Nsg40
Nsg41
Nsbsg42
S'b67b2131-df75-4fc0-a137-7c0facfd2566'
p1772
sg44
Nsbag1
(g2
g3
Ntp1773
Rp1774
(dp1775
g7
S'\xf9\xda\x1b\x10\xe9\x05~\x14\\\x8eiZ\xbch\xa4^'
p1776
sg9
I1349874995000
sg10
I1345876078000
sg11
Nsg12
I611
sg13
S'Then exchanges with the atmosphere are calculated by finding the difference betw'
p1777
sg15
S'b04a5825-1b8f-4f5d-98dc-34398a0c9089'
p1778
sg17
S'<?xml version="1.0" encoding="UTF-8"?>\n<!DOCTYPE en-note SYSTEM "http://xml.evernote.com/pub/enml2.dtd">\n\n<en-note style="word-wrap: break-word; -webkit-nbsp-mode: space; -webkit-line-break: after-white-space;">\nThen <font color="#E30000">exchanges with</font>&nbsp;the atmosphere are calculated by finding the difference&nbsp;between the gains from rain, as measured (rather roughly) by rain gauges, and the losses by evaporation, measured with&nbsp;models that correct for the other sources of water loss\n<div><br/></div><div>gauge: an instrument for measuring the size or amount of something.</div></en-note>'
p1779
sg19
Nsg20
I1144
sg21
Nsg22
I01
sg23
g1
(g24
g3
Ntp1780
Rp1781
(dp1782
g28
Nsg29
Nsg30
S'suyuxin'
p1783
sg32
Nsg33
Nsg34
Nsg35
Nsg36
Nsg37
Nsg38
Nsg39
Nsg40
Nsg41
Nsbsg42
S'352750de-fc12-4ec6-9760-fb032da1d272'
p1784
sg44
Nsbag1
(g2
g3
Ntp1785
Rp1786
(dp1787
g7
S',y\xfdu \x1eU\xcf\x07y\xe2\x84\xae\xef$\x01'
p1788
sg9
I1349872155000
sg10
I1345876043000
sg11
Nsg12
I433
sg13
S'Also, during sleep the automatic metabolic system is less responsive to carbon d'
p1789
sg15
S'b04a5825-1b8f-4f5d-98dc-34398a0c9089'
p1790
sg17
S'<?xml version="1.0" encoding="UTF-8" standalone="no"?>\n<!DOCTYPE en-note SYSTEM "http://xml.evernote.com/pub/enml2.dtd">\n<en-note style="word-wrap: break-word; -webkit-nbsp-mode: space; -webkit-line-break: after-white-space;">\n<div>Also, during sleep the automatic <font color="#D100FF">metabolic system</font> is <font color="#E30000">less responsive to</font> carbon dioxide\xc2\xa0levels and oxygen levels in the blood.</div>\n</en-note>\n'
p1791
sg19
Nsg20
I1145
sg21
Nsg22
I01
sg23
g1
(g24
g3
Ntp1792
Rp1793
(dp1794
g28
Nsg29
Nsg30
S'suyuxin'
p1795
sg32
Nsg33
Nsg34
Nsg35
Nsg36
Nsg37
Nsg38
Nsg39
Nsg40
Nsg41
Nsbsg42
S'994b6c27-a6b5-42c7-a81a-b9311cde644d'
p1796
sg44
Nsbag1
(g2
g3
Ntp1797
Rp1798
(dp1799
g7
S'[\xcd\xae\xfd\xc4\xf5\xe8\xdf0\xe9C\n\x0f\r\xbdi'
p1800
sg9
I1349794183000
sg10
I1345874802000
sg11
Nsg12
I676
sg13
S'So that this stage of the research was motivated by the expectancy that understa'
p1801
sg15
S'b04a5825-1b8f-4f5d-98dc-34398a0c9089'
p1802
sg17
S'<?xml version="1.0" encoding="UTF-8" standalone="no"?>\n<!DOCTYPE en-note SYSTEM "http://xml.evernote.com/pub/enml2.dtd">\n<en-note style="word-wrap: break-word; -webkit-nbsp-mode: space; -webkit-line-break: after-white-space;">\n<div>So that this stage of the research <font color="#A600C4">was motivated</font> by the expectancy that understanding and modeling\xc2\xa0the structure of a complex network would <font color="#3665EE">lead to</font> <font color="#E30000">a better knowledge of</font> its evolutionary mechanisms, and to a better\xc2\xa0cottoning on its dynamical and functional behavior.</div>\n<div><br/></div>\n<div>cotton on : to begin to understand something</div>\n</en-note>\n'
p1803
sg19
Nsg20
I1146
sg21
Nsg22
I01
sg23
g1
(g24
g3
Ntp1804
Rp1805
(dp1806
g28
Nsg29
Nsg30
S'suyuxin'
p1807
sg32
Nsg33
Nsg34
Nsg35
Nsg36
Nsg37
Nsg38
Nsg39
Nsg40
Nsg41
Nsbsg42
S'11e7218c-2518-4645-9ce3-a38cb83f91c0'
p1808
sg44
Nsbag1
(g2
g3
Ntp1809
Rp1810
(dp1811
g7
S'{x\x9d\xe1:S\xf5\x9f\x99\xd6\xc8\xcc\xebp"\xd0'
p1812
sg9
I1349872166000
sg10
I1345874739000
sg11
Nsg12
I370
sg13
S'Climax communities themselves change but over period of time greater than about'
p1813
sg15
S'b04a5825-1b8f-4f5d-98dc-34398a0c9089'
p1814
sg17
S'<?xml version="1.0" encoding="UTF-8" standalone="no"?>\n<!DOCTYPE en-note SYSTEM "http://xml.evernote.com/pub/enml2.dtd">\n<en-note style="word-wrap: break-word; -webkit-nbsp-mode: space; -webkit-line-break: after-white-space;">\n<div>Climax communities themselves <font color="#E30000">change but over period of time</font> greater than about 500 years.\xc2\xa0</div>\n</en-note>\n'
p1815
sg19
Nsg20
I1147
sg21
Nsg22
I01
sg23
g1
(g24
g3
Ntp1816
Rp1817
(dp1818
g28
Nsg29
Nsg30
S'suyuxin'
p1819
sg32
Nsg33
Nsg34
Nsg35
Nsg36
Nsg37
Nsg38
Nsg39
Nsg40
Nsg41
Nsbsg42
S'ce884b6f-d6ff-4380-bf2f-769d5452f020'
p1820
sg44
Nsbag1
(g2
g3
Ntp1821
Rp1822
(dp1823
g7
S'\xe4\x9ba\x01/\n\xf5\xff\xcf\x0b\x9cA6@\xfa\xf8'
p1824
sg9
I1349792296000
sg10
I1345874642000
sg11
Nsg12
I465
sg13
S'The first community in a succession is called pioneer community, while the most'
p1825
sg15
S'b04a5825-1b8f-4f5d-98dc-34398a0c9089'
p1826
sg17
S'<?xml version="1.0" encoding="UTF-8"?>\n<!DOCTYPE en-note SYSTEM "http://xml.evernote.com/pub/enml2.dtd">\n\n<en-note style="word-wrap: break-word; -webkit-nbsp-mode: space; -webkit-line-break: after-white-space;">\nThe first community in a succession is called pioneer community, while the most <font color="#1ECCFF">long-lived</font> community <font color="#E30000">at the end of</font> a succession <font color="#7600D8">is called</font> climax succession\n</en-note>'
p1827
sg19
Nsg20
I1148
sg21
Nsg22
I01
sg23
g1
(g24
g3
Ntp1828
Rp1829
(dp1830
g28
Nsg29
Nsg30
S'suyuxin'
p1831
sg32
Nsg33
Nsg34
Nsg35
Nsg36
Nsg37
Nsg38
Nsg39
Nsg40
Nsg41
Nsbsg42
S'ca576a47-2dcd-4006-a93a-3cd15f2cd576'
p1832
sg44
Nsbag1
(g2
g3
Ntp1833
Rp1834
(dp1835
g7
S'\xc6\xa4\x876\xa2\xd7\xf4b\xaab!.\xf2\xd0[V'
p1836
sg9
I1349792090000
sg10
I1345874592000
sg11
Nsg12
I437
sg13
S'Ecologists use the term "succession" to refer to the changes that happen in plan'
p1837
sg15
S'b04a5825-1b8f-4f5d-98dc-34398a0c9089'
p1838
sg17
S'<?xml version="1.0" encoding="UTF-8"?>\n<!DOCTYPE en-note SYSTEM "http://xml.evernote.com/pub/enml2.dtd">\n\n<en-note style="word-wrap: break-word; -webkit-nbsp-mode: space; -webkit-line-break: after-white-space;">\nEcologists <font color="#E30000">use the term</font> &quot;succession&quot; to <font color="#D100FF">refer to</font> the changes that happen in plant communities and ecosystems <font color="#3665EE">over time</font></en-note>'
p1839
sg19
Nsg20
I1149
sg21
Nsg22
I01
sg23
g1
(g24
g3
Ntp1840
Rp1841
(dp1842
g28
Nsg29
Nsg30
S'suyuxin'
p1843
sg32
Nsg33
Nsg34
Nsg35
Nsg36
Nsg37
Nsg38
Nsg39
Nsg40
Nsg41
Nsbsg42
S'1d0c9ea7-ff02-4a03-ba85-c60272e8fc15'
p1844
sg44
Nsbag1
(g2
g3
Ntp1845
Rp1846
(dp1847
g7
S'\xd2\x12\xb2x\x08v:&\x0e\xd2\xb6$\xed^0a'
p1848
sg9
I1349698150000
sg10
I1345874511000
sg11
Nsg12
I1083
sg13
S'Plant communities assemble themselves flexibly, and their particular structure d'
p1849
sg15
S'b04a5825-1b8f-4f5d-98dc-34398a0c9089'
p1850
sg17
S'<?xml version="1.0" encoding="UTF-8"?>\n<!DOCTYPE en-note SYSTEM "http://xml.evernote.com/pub/enml2.dtd">\n\n<en-note style="word-wrap: break-word; -webkit-nbsp-mode: space; -webkit-line-break: after-white-space;"><div><span style="widows: 2; text-transform: none; text-indent: 0px; border-collapse: separate; font: normal normal normal medium/normal \xe6\xa5\xb7\xe4\xbd\x93; white-space: normal; orphans: 2; letter-spacing: normal; word-spacing: 0px; -webkit-border-horizontal-spacing: 0px; -webkit-border-vertical-spacing: 0px; -webkit-text-decorations-in-effect: none; -webkit-text-size-adjust: auto; -webkit-text-stroke-width: 0px;"><font size="+0" style="color: rgb(0, 0, 0);">Plant communities</font> <font color="#E30000" size="+0">assemble</font> themselves <font color="#D100FF" size="+0">flexibly</font>, and their <font size="+0" style="color: rgb(0, 0, 0);">particular</font> structure <font size="+0" style="color: rgb(0, 0, 0);">depends on</font> the <font color="#1ECCFF" size="+0">specific history</font> <font size="+0" style="color: rgb(0, 0, 0);">of</font> the area</span></div></en-note>'
p1851
sg19
Nsg20
I1150
sg21
Nsg22
I01
sg23
g1
(g24
g3
Ntp1852
Rp1853
(dp1854
g28
Nsg29
Nsg30
S'suyuxin'
p1855
sg32
Nsg33
Nsg34
Nsg35
Nsg36
Nsg37
Nsg38
Nsg39
Nsg40
Nsg41
Nsbsg42
S'0850bfe0-7a67-4485-afd6-77c5af27f0bb'
p1856
sg44
Nsbag1
(g2
g3
Ntp1857
Rp1858
(dp1859
g7
S'\xb2\x86\x98$\x1a~t\x86\xbd\xd7M(\xe7\x8e\x9ba'
p1860
sg9
I1361508668000
sg10
I1345874429000
sg11
Nsg12
I1984
sg13
S'Pioneer and successional plant communities are said to change over period from 1'
p1861
sg15
S'b04a5825-1b8f-4f5d-98dc-34398a0c9089'
p1862
sg17
S'<?xml version="1.0" encoding="UTF-8"?>\n<!DOCTYPE en-note SYSTEM "http://xml.evernote.com/pub/enml2.dtd">\n\n<en-note style="word-wrap: break-word; -webkit-nbsp-mode: space; -webkit-line-break: after-white-space;"><div><span style="WIDOWS: 2; TEXT-TRANSFORM: none; TEXT-INDENT: 0px; BORDER-COLLAPSE: separate; FONT: medium \xe6\xa5\xb7\xe4\xbd\x93; WHITE-SPACE: normal; ORPHANS: 2; LETTER-SPACING: normal; COLOR: rgb(0,0,0); WORD-SPACING: 0px; -webkit-border-horizontal-spacing: 0px; -webkit-border-vertical-spacing: 0px; -webkit-text-decorations-in-effect: none; -webkit-text-size-adjust: auto; -webkit-text-stroke-width: 0px">Pioneer and successional plant communities</span> <span style="widows: 2; text-transform: none; text-indent: 0px; border-collapse: separate; font: normal normal normal medium/normal \xe6\xa5\xb7\xe4\xbd\x93; white-space: normal; orphans: 2; letter-spacing: normal; word-spacing: 0px; -webkit-border-horizontal-spacing: 0px; -webkit-border-vertical-spacing: 0px; -webkit-text-decorations-in-effect: none; -webkit-text-size-adjust: auto; -webkit-text-stroke-width: 0px;"><font color="#E30000">are said to</font></span><span style="widows: 2; text-transform: none; text-indent: 0px; border-collapse: separate; font: normal normal normal medium/normal \xe6\xa5\xb7\xe4\xbd\x93; white-space: normal; orphans: 2; letter-spacing: normal; word-spacing: 0px; -webkit-border-horizontal-spacing: 0px; -webkit-border-vertical-spacing: 0px; -webkit-text-decorations-in-effect: none; -webkit-text-size-adjust: auto; -webkit-text-stroke-width: 0px;">&nbsp;<font color="#A600C4">change over period from</font></span> <span style="WIDOWS: 2; TEXT-TRANSFORM: none; TEXT-INDENT: 0px; BORDER-COLLAPSE: separate; FONT: medium \xe6\xa5\xb7\xe4\xbd\x93; WHITE-SPACE: normal; ORPHANS: 2; LETTER-SPACING: normal; COLOR: rgb(0,0,0); WORD-SPACING: 0px; -webkit-border-horizontal-spacing: 0px; -webkit-border-vertical-spacing: 0px; -webkit-text-decorations-in-effect: none; -webkit-text-size-adjust: auto; -webkit-text-stroke-width: 0px">1 to 500 years</span></div></en-note>'
p1863
sg19
Nsg20
I1151
sg21
Nsg22
I01
sg23
g1
(g24
g3
Ntp1864
Rp1865
(dp1866
g28
Nsg29
S'about:blank'
p1867
sg30
S'suyuxin'
p1868
sg32
Nsg33
Nsg34
Nsg35
Nsg36
Nsg37
Nsg38
Nsg39
Nsg40
Nsg41
Nsbsg42
S'42f2cdda-7edb-4d70-9b96-a6160284e239'
p1869
sg44
Nsbag1
(g2
g3
Ntp1870
Rp1871
(dp1872
g7
S'\x91\xaf\x88\xb7=\xd4\xa5\x91\\\n<\xa4\x1b\x07\x1aZ'
p1873
sg9
I1349698029000
sg10
I1345874357000
sg11
Nsg12
I590
sg13
S'The first is that new research lines have emerged, covering novel topics and pro'
p1874
sg15
S'b04a5825-1b8f-4f5d-98dc-34398a0c9089'
p1875
sg17
S'<?xml version="1.0" encoding="UTF-8"?>\n<!DOCTYPE en-note SYSTEM "http://xml.evernote.com/pub/enml2.dtd">\n\n<en-note style="word-wrap: break-word; -webkit-nbsp-mode: space; -webkit-line-break: after-white-space;"><div>The first is that new research lines <font color="#D100FF">have emerged</font>, covering novel topics and problems in network structure. An&nbsp;example is the <font color="#E30000">freshing and increasingly</font> challenging <font color="#2D4FC9">care to</font> study weighted networks, i.e. networks in which a real&nbsp;number is associated to each link.</div></en-note>'
p1876
sg19
Nsg20
I1152
sg21
Nsg22
I01
sg23
g1
(g24
g3
Ntp1877
Rp1878
(dp1879
g28
Nsg29
Nsg30
S'suyuxin'
p1880
sg32
Nsg33
Nsg34
Nsg35
Nsg36
Nsg37
Nsg38
Nsg39
Nsg40
Nsg41
Nsbsg42
S'89af0cea-b25a-4163-808f-876df9cae34b'
p1881
sg44
Nsbag1
(g2
g3
Ntp1882
Rp1883
(dp1884
g7
S'l\xaa\xc0o\x17\xd6z\xcc\xcce\x1e\xda\x08U\xac\x8a'
p1885
sg9
I1349697463000
sg10
I1345874184000
sg11
Nsg12
I554
sg13
S'Not only are there differences in the level of the functioning of respiratory sy'
p1886
sg15
S'b04a5825-1b8f-4f5d-98dc-34398a0c9089'
p1887
sg17
S'<?xml version="1.0" encoding="UTF-8"?>\n<!DOCTYPE en-note SYSTEM "http://xml.evernote.com/pub/enml2.dtd">\n\n<en-note style="word-wrap: break-word; -webkit-nbsp-mode: space; -webkit-line-break: after-white-space;"><div><font color="#E30000">Not only are there</font> differences in the level of the functioning of&nbsp;respiratory systems, there are even changes in <font color="#D100FF">how they function</font></div><div><font color="#D100FF"><br/></font></div><div><font color="#2D4FC9">respiratory: relating to your breath or lung</font></div></en-note>'
p1888
sg19
Nsg20
I1153
sg21
Nsg22
I01
sg23
g1
(g24
g3
Ntp1889
Rp1890
(dp1891
g28
Nsg29
Nsg30
S'suyuxin'
p1892
sg32
Nsg33
Nsg34
Nsg35
Nsg36
Nsg37
Nsg38
Nsg39
Nsg40
Nsg41
Nsbsg42
S'98709264-38a7-4757-8e7a-3c94a668c1eb'
p1893
sg44
Nsbag1
(g2
g3
Ntp1894
Rp1895
(dp1896
g7
S'Gx4\x88\x90\xcc\x8d\x03u\xd9\xe9r~\x18\xe6\x89'
p1897
sg9
I1349696741000
sg10
I1345874136000
sg11
Nsg12
I449
sg13
S'The human eye is a powerful tool to gain an understanding of the structure of sm'
p1898
sg15
S'b04a5825-1b8f-4f5d-98dc-34398a0c9089'
p1899
sg17
S'<?xml version="1.0" encoding="UTF-8" standalone="no"?>\n<!DOCTYPE en-note SYSTEM "http://xml.evernote.com/pub/enml2.dtd">\n<en-note style="word-wrap: break-word; -webkit-nbsp-mode: space; -webkit-line-break: after-white-space;">\n<div>The human eye is a <font color="#D100FF">powerful tool</font> to <font color="#E30000">gain an understanding</font>\xc2\xa0of the structure of small networks <font color="#FF40FF">of tens of</font> vertices</div>\n</en-note>\n'
p1900
sg19
Nsg20
I1154
sg21
Nsg22
I01
sg23
g1
(g24
g3
Ntp1901
Rp1902
(dp1903
g28
Nsg29
Nsg30
S'suyuxin'
p1904
sg32
Nsg33
Nsg34
Nsg35
Nsg36
Nsg37
Nsg38
Nsg39
Nsg40
Nsg41
Nsbsg42
S'27e07ce3-96dc-4845-870c-8a20a2b7190a'
p1905
sg44
Nsbag1
(g2
g3
Ntp1906
Rp1907
(dp1908
g7
S'Cc\xda7\x12\x9c`@P\xb1\xa6\x1b\xc3Z\xdfu'
p1909
sg9
I1349697344000
sg10
I1345820029000
sg11
Nsg12
I385
sg13
S'We can say that the properties of ecosystem will be more stable than individual'
p1910
sg15
S'b04a5825-1b8f-4f5d-98dc-34398a0c9089'
p1911
sg17
S'<?xml version="1.0" encoding="UTF-8" standalone="no"?>\n<!DOCTYPE en-note SYSTEM "http://xml.evernote.com/pub/enml2.dtd">\n<en-note style="word-wrap: break-word; -webkit-nbsp-mode: space; -webkit-line-break: after-white-space;">\nWe can say that the properties of ecosystem will be more stable than individual organisms that <font color="#E30000">compose</font> the ecosystem.\n</en-note>\n'
p1912
sg19
Nsg20
I1155
sg21
Nsg22
I01
sg23
g1
(g24
g3
Ntp1913
Rp1914
(dp1915
g28
Nsg29
Nsg30
S'suyuxin'
p1916
sg32
Nsg33
Nsg34
Nsg35
Nsg36
Nsg37
Nsg38
Nsg39
Nsg40
Nsg41
Nsbsg42
S'6c634df2-cc54-4ce7-bf25-30f012ea85b7'
p1917
sg44
Nsbag1
(g2
g3
Ntp1918
Rp1919
(dp1920
g7
S'\xd1\x83\xb7\xfb\xf5\x87\xb24\x1e\x0f\x1aJ\x92\xf7_('
p1921
sg9
I1349697334000
sg10
I1345820003000
sg11
Nsg12
I412
sg13
S'An individual fish may be replaced, but the number of fish will tend to be the s'
p1922
sg15
S'b04a5825-1b8f-4f5d-98dc-34398a0c9089'
p1923
sg17
S'<?xml version="1.0" encoding="UTF-8" standalone="no"?>\n<!DOCTYPE en-note SYSTEM "http://xml.evernote.com/pub/enml2.dtd">\n<en-note style="word-wrap: break-word; -webkit-nbsp-mode: space; -webkit-line-break: after-white-space;">\nAn individual fish may <font color="#D100FF">be replaced</font>, but the number of fish will tend to be the same <font color="#E30000">from one year to the next year</font>.\n</en-note>\n'
p1924
sg19
Nsg20
I1156
sg21
Nsg22
I01
sg23
g1
(g24
g3
Ntp1925
Rp1926
(dp1927
g28
Nsg29
Nsg30
S'suyuxin'
p1928
sg32
Nsg33
Nsg34
Nsg35
Nsg36
Nsg37
Nsg38
Nsg39
Nsg40
Nsg41
Nsbsg42
S'24f5dbed-b43a-43fb-bf45-5f1343211a09'
p1929
sg44
Nsbag1
(g2
g3
Ntp1930
Rp1931
(dp1932
g7
S'&4 xd\x13\xf4GF\xad\x1a\x9fBP\x1a\xfd'
p1933
sg9
I1349696957000
sg10
I1345819934000
sg11
Nsg12
I383
sg13
S"An Ecologist who studies pond today may find it relatively unchanged in a year's"
p1934
sg15
S'b04a5825-1b8f-4f5d-98dc-34398a0c9089'
p1935
sg17
S'<?xml version="1.0" encoding="UTF-8" standalone="no"?>\n<!DOCTYPE en-note SYSTEM "http://xml.evernote.com/pub/enml2.dtd">\n<en-note style="word-wrap: break-word; -webkit-nbsp-mode: space; -webkit-line-break: after-white-space;">\nAn Ecologist who studies pond today may find it <font color="#D100FF">relatively unchanged</font> <font color="#E30000">in a year\'s time</font>.\n</en-note>\n'
p1936
sg19
Nsg20
I1157
sg21
Nsg22
I01
sg23
g1
(g24
g3
Ntp1937
Rp1938
(dp1939
g28
Nsg29
Nsg30
S'suyuxin'
p1940
sg32
Nsg33
Nsg34
Nsg35
Nsg36
Nsg37
Nsg38
Nsg39
Nsg40
Nsg41
Nsbsg42
S'0108e99a-2936-4cd6-8410-d2a84a77d129'
p1941
sg44
Nsbag1
(g2
g3
Ntp1942
Rp1943
(dp1944
g7
S'\xf0\xf6R\x1a\x06\n\xbcI\xaf\xaf\xc5\xd8\xfe\xb4[0'
p1945
sg9
I1349695600000
sg10
I1345819834000
sg11
Nsg12
I511
sg13
S'It takes twice as much effort to breathe during sleep because of greater resista'
p1946
sg15
S'b04a5825-1b8f-4f5d-98dc-34398a0c9089'
p1947
sg17
S'<?xml version="1.0" encoding="UTF-8" standalone="no"?>\n<!DOCTYPE en-note SYSTEM "http://xml.evernote.com/pub/enml2.dtd">\n<en-note style="word-wrap: break-word; -webkit-nbsp-mode: space; -webkit-line-break: after-white-space;">\n<div>It\xc2\xa0<font color="#E30000">takes twice as much effort</font> to breathe during sleep because of <font color="#E30000">greater resistance</font> to airflow in the airways and changes <font color="#E30000">in the\xc2\xa0efficiency of</font> the muscles used for breathing.</div>\n</en-note>\n'
p1948
sg19
Nsg20
I1158
sg21
Nsg22
I01
sg23
g1
(g24
g3
Ntp1949
Rp1950
(dp1951
g28
Nsg29
Nsg30
S'suyuxin'
p1952
sg32
Nsg33
Nsg34
Nsg35
Nsg36
Nsg37
Nsg38
Nsg39
Nsg40
Nsg41
Nsbsg42
S'9011fa9e-4c53-4b7e-b738-389797c84b13'
p1953
sg44
Nsbag1
(g2
g3
Ntp1954
Rp1955
(dp1956
g7
S'\xe2\x99\\&\xa8\x8e\x83\xf2\x1d\x8ar\xba\x81B=\x15'
p1957
sg9
I1349696835000
sg10
I1345819756000
sg11
Nsg12
I964
sg13
S'In the sixteenth century, fruit and vegetables were to be found'
p1958
sg15
S'b04a5825-1b8f-4f5d-98dc-34398a0c9089'
p1959
sg17
S'<?xml version="1.0" encoding="UTF-8"?>\n<!DOCTYPE en-note SYSTEM "http://xml.evernote.com/pub/enml2.dtd">\n\n<en-note style="word-wrap: break-word; -webkit-nbsp-mode: space; -webkit-line-break: after-white-space;"><div><span style="border-collapse: separate; color: rgb(0, 0, 0); font-family: \xe6\xa5\xb7\xe4\xbd\x93; font-style: normal; font-variant: normal; font-weight: normal; letter-spacing: normal; line-height: normal; orphans: 2; text-align: -webkit-auto; text-indent: 0px; text-transform: none; white-space: normal; widows: 2; word-spacing: 0px; -webkit-border-horizontal-spacing: 0px; -webkit-border-vertical-spacing: 0px; -webkit-text-decorations-in-effect: none; -webkit-text-size-adjust: auto; -webkit-text-stroke-width: 0px; font-size: medium;">In the sixteenth century, fruit and vegetables<span>&nbsp;</span><font size="+0">were to be found</font><br/>\nonly in gardens<span>&nbsp;</span><font color="#E30000">belonging to</font>&nbsp;wealthy people.</span></div></en-note>'
p1960
sg19
Nsg20
I1159
sg21
Nsg22
I01
sg23
g1
(g24
g3
Ntp1961
Rp1962
(dp1963
g28
Nsg29
Nsg30
S'suyuxin'
p1964
sg32
Nsg33
Nsg34
Nsg35
Nsg36
Nsg37
Nsg38
Nsg39
Nsg40
Nsg41
Nsbsg42
S'e0c00e2e-d371-4b2c-9caf-90b25d511980'
p1965
sg44
Nsbag1
(g2
g3
Ntp1966
Rp1967
(dp1968
g7
S'o\x9c+P\x9e\xdc\xe4f\xfe\x91\xdbP\xb7\xeb\n\x9d'
p1969
sg9
I1349696513000
sg10
I1345819732000
sg11
Nsg12
I2050
sg13
S'The temperature increased dramatically in a short period of time (years rather t'
p1970
sg15
S'b04a5825-1b8f-4f5d-98dc-34398a0c9089'
p1971
sg17
S'<?xml version="1.0" encoding="UTF-8" standalone="no"?>\n<!DOCTYPE en-note SYSTEM "http://xml.evernote.com/pub/enml2.dtd">\n<en-note style="word-wrap: break-word; -webkit-nbsp-mode: space; -webkit-line-break: after-white-space;">\n<div><span style="border-collapse: separate; color: rgb(0, 0, 0); font-family: \xe6\xa5\xb7\xe4\xbd\x93; font-style: normal; font-variant: normal; font-weight: normal; letter-spacing: normal; line-height: normal; orphans: 2; text-align: -webkit-auto; text-indent: 0px; text-transform: none; white-space: normal; widows: 2; word-spacing: 0px; -webkit-border-horizontal-spacing: 0px; -webkit-border-vertical-spacing: 0px; -webkit-text-decorations-in-effect: none; -webkit-text-size-adjust: auto; -webkit-text-stroke-width: 0px; font-size: medium;">The temperature increased dramatically in a short period of time (years rather than centuries),<span>\xc2\xa0</span><font color="#E30000">allowing for</font>\xc2\xa0</span><span style="border-collapse: separate; font-family: \xe6\xa5\xb7\xe4\xbd\x93; font-style: normal; font-variant: normal; font-weight: normal; letter-spacing: normal; line-height: normal; orphans: 2; text-align: -webkit-auto; text-indent: 0px; text-transform: none; white-space: normal; widows: 2; word-spacing: 0px; border-spacing: 0px; -webkit-text-decorations-in-effect: none; -webkit-text-size-adjust: auto; -webkit-text-stroke-width: 0px; font-size: medium;"><font color="#FF40FF">a growth of</font></span> <span style="border-collapse: separate; color: rgb(0, 0, 0); font-family: \xe6\xa5\xb7\xe4\xbd\x93; font-style: normal; font-variant: normal; font-weight: normal; letter-spacing: normal; line-height: normal; orphans: 2; text-align: -webkit-auto; text-indent: 0px; text-transform: none; white-space: normal; widows: 2; word-spacing: 0px; -webkit-border-horizontal-spacing: 0px; -webkit-border-vertical-spacing: 0px; -webkit-text-decorations-in-effect: none; -webkit-text-size-adjust: auto; -webkit-text-stroke-width: 0px; font-size: medium;">the hunting-gathering population due to<span>\xc2\xa0</span><font color="#E30000">the abundance of resources</font></span></div>\n</en-note>\n'
p1972
sg19
Nsg20
I1160
sg21
Nsg22
I01
sg23
g1
(g24
g3
Ntp1973
Rp1974
(dp1975
g28
Nsg29
Nsg30
S'suyuxin'
p1976
sg32
Nsg33
Nsg34
Nsg35
Nsg36
Nsg37
Nsg38
Nsg39
Nsg40
Nsg41
Nsbsg42
S'07ff7386-03b1-4fd4-8fea-2d742a56a5b9'
p1977
sg44
Nsbag1
(g2
g3
Ntp1978
Rp1979
(dp1980
g7
S'\x87\xba\x92\\\xf1\xe2\xd76\xe7\xf8\xd25qX\x10\xb8'
p1981
sg9
I1348151718000
sg10
I1345819687000
sg11
Nsg12
I715
sg13
S'Knowledge about narratives arises from social interactions, particularly the sto'
p1982
sg15
S'b04a5825-1b8f-4f5d-98dc-34398a0c9089'
p1983
sg17
S'<?xml version="1.0" encoding="UTF-8"?>\n<!DOCTYPE en-note SYSTEM "http://xml.evernote.com/pub/enml2.dtd">\n\n<en-note style="word-wrap: break-word; -webkit-nbsp-mode: space; -webkit-line-break: after-white-space;"><div><font color="#E30000">Knowledge about</font> narratives arises from <font color="#E30000">social&nbsp;interactions</font>, particularly the <font color="#E30000">storytelling</font> that children <font color="#E30000">experience from</font> parents and the attempts parents make to talk&nbsp;with children about past events in their lives.</div><div><br/></div><div><br/></div><div>narratives: a description of a event in a story, especially in novel.</div><div><br/></div><div><br/></div></en-note>'
p1984
sg19
Nsg20
I1161
sg21
Nsg22
I01
sg23
g1
(g24
g3
Ntp1985
Rp1986
(dp1987
g28
Nsg29
Nsg30
S'suyuxin'
p1988
sg32
Nsg33
Nsg34
Nsg35
Nsg36
Nsg37
Nsg38
Nsg39
Nsg40
Nsg41
Nsbsg42
S'a495f140-d123-4250-ae8a-b7158bf01da0'
p1989
sg44
Nsba.