(lp0
(lp1
ccopy_reg
_reconstructor
p2
(cevernote.edam.type.ttypes
Notebook
p3
c__builtin__
object
p4
Ntp5
Rp6
(dp7
S'name'
p8
S'Code'
p9
sS'defaultNotebook'
p10
I00
sS'serviceUpdated'
p11
I1352471844000
sS'sharedNotebookIds'
p12
NsS'sharedNotebooks'
p13
NsS'updateSequenceNum'
p14
I26702
sS'published'
p15
NsS'serviceCreated'
p16
I1298001915000
sS'guid'
p17
S'4e63b5f5-f44a-4b3e-98ca-b648b63a152b'
p18
sS'stack'
p19
S'Little Used'
p20
sS'publishing'
p21
Nsbag2
(g3
g4
Ntp22
Rp23
(dp24
g8
S'GRE\xe7\xac\x94\xe8\xae\xb0'
p25
sg10
I00
sg11
I1352471853000
sg12
Nsg13
Nsg14
I26703
sg15
Nsg16
I1287925533000
sg17
S'324339c0-76bc-452e-b052-860cf173df07'
p26
sg19
S'Little Used'
p27
sg21
Nsbag2
(g3
g4
Ntp28
Rp29
(dp30
g8
S'papers'
p31
sg10
I00
sg11
I1352471855000
sg12
Nsg13
Nsg14
I26704
sg15
Nsg16
I1313124306000
sg17
S'adb33df1-c358-45ec-8f4a-db97d66117c8'
p32
sg19
S'Study Notes'
p33
sg21
Nsbag2
(g3
g4
Ntp34
Rp35
(dp36
g8
S'complex network'
p37
sg10
I00
sg11
I1352471855000
sg12
Nsg13
Nsg14
I26705
sg15
Nsg16
I1329117755000
sg17
S'b2eb7216-54c4-405f-a4be-649e0c7c6b13'
p38
sg19
S'Study Notes'
p39
sg21
Nsbag2
(g3
g4
Ntp40
Rp41
(dp42
g8
S'\xe4\xb8\x93\xe4\xb8\x9a\xe4\xb9\xa6'
p43
sg10
I00
sg11
I1352555021000
sg12
(lp44
I20723
asg13
Nsg14
I26706
sg15
Nsg16
I1345170234000
sg17
S'f991925b-e596-46e1-9238-6e5220390816'
p45
sg19
S'Study Notes'
p46
sg21
Nsbag2
(g3
g4
Ntp47
Rp48
(dp49
g8
S'graphViz'
p50
sg10
I00
sg11
I1352471857000
sg12
Nsg13
Nsg14
I26707
sg15
Nsg16
I1329902919000
sg17
S'82b498dc-31b6-4e23-b1b9-d25efe15d017'
p51
sg19
S'Tool'
p52
sg21
Nsbag2
(g3
g4
Ntp53
Rp54
(dp55
g8
S'ideas'
p56
sg10
I00
sg11
I1352471858000
sg12
Nsg13
Nsg14
I26708
sg15
Nsg16
I1297861659000
sg17
S'3e0f4164-10c5-4d67-ae5a-b4bb81d04292'
p57
sg19
S'Study Notes'
p58
sg21
Nsbag2
(g3
g4
Ntp59
Rp60
(dp61
g8
S'\xe8\xaf\xbb\xe4\xb9\xa6\xe7\xac\x94\xe8\xae\xb0'
p62
sg10
I00
sg11
I1352471863000
sg12
Nsg13
Nsg14
I26709
sg15
Nsg16
I1288265669000
sg17
S'4f1527ff-15d4-420b-a077-6b3165d59448'
p63
sg19
S'\xe5\xb0\x8f\xe6\x96\x87\xe8\x89\xba'
p64
sg21
Nsbag2
(g3
g4
Ntp65
Rp66
(dp67
g8
S'\xe6\x84\x9a\xe8\xa7\x81'
p68
sg10
I00
sg11
I1352471864000
sg12
Nsg13
Nsg14
I26710
sg15
Nsg16
I1339944028000
sg17
S'3f54291d-ab6b-4728-a5e1-0404d5453da5'
p69
sg19
S'\xe5\xb0\x8f\xe6\x96\x87\xe8\x89\xba'
p70
sg21
Nsbag2
(g3
g4
Ntp71
Rp72
(dp73
g8
S'math tools'
p74
sg10
I00
sg11
I1352471865000
sg12
Nsg13
Nsg14
I26711
sg15
Nsg16
I1298277418000
sg17
S'96283d5f-eabe-4382-8056-ed2098ba3183'
p75
sg19
S'Tool'
p76
sg21
Nsbag2
(g3
g4
Ntp77
Rp78
(dp79
g8
S'\xe8\xaf\x8d\xe6\xa0\xb9'
p80
sg10
I00
sg11
I1352471866000
sg12
Nsg13
Nsg14
I26712
sg15
Nsg16
I1291737500000
sg17
S'dd5304d4-5e67-40ae-8686-b74ca2f13bf1'
p81
sg19
S'Little Used'
p82
sg21
Nsbag2
(g3
g4
Ntp83
Rp84
(dp85
g8
S'\xe5\x90\xac\xe5\x86\x99\xe8\xae\xb0\xe5\xbd\x95'
p86
sg10
I00
sg11
I1352471872000
sg12
Nsg13
Nsg14
I26713
sg15
Nsg16
I1330013375000
sg17
S'948a721c-096f-4a68-ba85-1af7a5a879f2'
p87
sg19
S'\xe8\x8b\xb1\xe8\xaf\xad'
p88
sg21
Nsbag2
(g3
g4
Ntp89
Rp90
(dp91
g8
S'emacs'
p92
sg10
I00
sg11
I1352471877000
sg12
Nsg13
Nsg14
I26714
sg15
Nsg16
I1308211169000
sg17
S'a613e888-feba-4752-8edf-6cafbc5d6231'
p93
sg19
S'Tool'
p94
sg21
Nsbag2
(g3
g4
Ntp95
Rp96
(dp97
g8
S'build tools'
p98
sg10
I00
sg11
I1355193996000
sg12
Nsg13
Nsg14
I26715
sg15
Nsg16
I1307356461000
sg17
S'261d66ad-aa37-4390-9f07-7d69cf8e8ef7'
p99
sg19
S'Tool'
p100
sg21
Nsbag2
(g3
g4
Ntp101
Rp102
(dp103
g8
S'\xe6\x97\xa0\xe5\xa4\x84\xe5\xae\x89\xe6\x94\xbe\xe7\x9a\x84\xe9\x9d\x92\xe6\x98\xa5'
p104
sg10
I00
sg11
I1352471879000
sg12
Nsg13
Nsg14
I26716
sg15
Nsg16
I1332735310000
sg17
S'6581874a-24c9-4f16-b8b3-913afc527936'
p105
sg19
S'\xe4\xb8\xaa\xe4\xba\xba\xe7\xa9\xba\xe9\x97\xb4'
p106
sg21
Nsbag2
(g3
g4
Ntp107
Rp108
(dp109
g8
S'graph theory'
p110
sg10
I00
sg11
I1352471880000
sg12
Nsg13
Nsg14
I26717
sg15
Nsg16
I1335241371000
sg17
S'da9b3d4d-700c-4270-acbb-0177f3e0f934'
p111
sg19
S'Study Notes'
p112
sg21
Nsbag2
(g3
g4
Ntp113
Rp114
(dp115
g8
S'vim'
p116
sg10
I00
sg11
I1352471881000
sg12
Nsg13
Nsg14
I26718
sg15
Nsg16
I1298002958000
sg17
S'c814ef0a-c6b0-4019-b43a-f15d185fe0ad'
p117
sg19
S'Little Used'
p118
sg21
Nsbag2
(g3
g4
Ntp119
Rp120
(dp121
g8
S'algorithm'
p122
sg10
I00
sg11
I1352471884000
sg12
Nsg13
Nsg14
I26719
sg15
Nsg16
I1330651184000
sg17
S'96f77ae8-0607-42a4-ab38-bc9796efb714'
p123
sg19
S'Tool'
p124
sg21
Nsbag2
(g3
g4
Ntp125
Rp126
(dp127
g8
S'zju'
p128
sg10
I00
sg11
I1353471932000
sg12
Nsg13
Nsg14
I26720
sg15
Nsg16
I1326110304000
sg17
S'f3c1c21b-59e4-414e-9bd5-47d20b7825cb'
p129
sg19
S'Little Used'
p130
sg21
Nsbag2
(g3
g4
Ntp131
Rp132
(dp133
g8
S'qt'
p134
sg10
I00
sg11
I1352555020000
sg12
Nsg13
Nsg14
I26722
sg15
Nsg16
I1298002960000
sg17
S'ef2045a0-e65d-41c3-afbe-7bc3bab807f5'
p135
sg19
S'Tool'
p136
sg21
Nsbag2
(g3
g4
Ntp137
Rp138
(dp139
g8
S'synchronization'
p140
sg10
I00
sg11
I1352471894000
sg12
Nsg13
Nsg14
I26723
sg15
Nsg16
I1337048669000
sg17
S'87c43257-5236-46fa-9b98-b33b5b00633c'
p141
sg19
S'Study Notes'
p142
sg21
Nsbag2
(g3
g4
Ntp143
Rp144
(dp145
g8
S'previous'
p146
sg10
I00
sg11
I1352471895000
sg12
Nsg13
Nsg14
I26724
sg15
Nsg16
I1298277416000
sg17
S'961780cc-c4d2-4365-816f-a4a21e8b6db5'
p147
sg19
S'Little Used'
p148
sg21
Nsbag2
(g3
g4
Ntp149
Rp150
(dp151
g8
S'latex'
p152
sg10
I00
sg11
I1352471896000
sg12
Nsg13
Nsg14
I26725
sg15
Nsg16
I1298001913000
sg17
S'9ff11478-6e18-48e4-9f28-e391a39abc36'
p153
sg19
S'Tool'
p154
sg21
Nsbag2
(g3
g4
Ntp155
Rp156
(dp157
g8
S'windows'
p158
sg10
I00
sg11
I1352471899000
sg12
Nsg13
Nsg14
I26727
sg15
Nsg16
I1298001912000
sg17
S'd9ea6fe2-fb7e-4951-9ef3-1761a10827f0'
p159
sg19
S'Little Used'
p160
sg21
Nsbag2
(g3
g4
Ntp161
Rp162
(dp163
g8
S'\xe7\x85\xa7\xe7\x89\x87'
p164
sg10
I00
sg11
I1353288257000
sg12
Nsg13
Nsg14
I26728
sg15
Nsg16
I1331538146000
sg17
S'5e21ed7a-0705-4949-a90d-77c49e7fa763'
p165
sg19
S'\xe4\xb8\xaa\xe4\xba\xba\xe7\xa9\xba\xe9\x97\xb4'
p166
sg21
Nsbag2
(g3
g4
Ntp167
Rp168
(dp169
g8
S'phd info'
p170
sg10
I00
sg11
I1353471931000
sg12
Nsg13
Nsg14
I26729
sg15
Nsg16
I1336630250000
sg17
S'52ab4ab2-f8a0-4748-9bb0-35f2a7d8e5a4'
p171
sg19
S'Little Used'
p172
sg21
Nsbag2
(g3
g4
Ntp173
Rp174
(dp175
g8
S'math'
p176
sg10
I00
sg11
I1352471901000
sg12
Nsg13
Nsg14
I26731
sg15
Nsg16
I1294639015000
sg17
S'44dbe6da-c310-4664-986d-69783fd81371'
p177
sg19
S'Study Notes'
p178
sg21
Nsbag2
(g3
g4
Ntp179
Rp180
(dp181
g8
S'c++'
p182
sg10
I00
sg11
I1353138279000
sg12
Nsg13
Nsg14
I26732
sg15
Nsg16
I1298801712000
sg17
S'e3a9caa0-d2bd-4915-9de8-7f97befcd6d5'
p183
sg19
S'Tool'
p184
sg21
Nsbag2
(g3
g4
Ntp185
Rp186
(dp187
g8
S'tikz'
p188
sg10
I00
sg11
I1352471902000
sg12
Nsg13
Nsg14
I26733
sg15
Nsg16
I1303143514000
sg17
S'934b26c4-2cf7-4df0-b780-69b9dc5a35bf'
p189
sg19
S'Tool'
p190
sg21
Nsbag2
(g3
g4
Ntp191
Rp192
(dp193
g8
S'chaos'
p194
sg10
I00
sg11
I1352471903000
sg12
Nsg13
Nsg14
I26734
sg15
Nsg16
I1331881412000
sg17
S'cc95b62a-98a1-465e-b22c-8d153d9f5f60'
p195
sg19
S'Study Notes'
p196
sg21
Nsbag2
(g3
g4
Ntp197
Rp198
(dp199
g8
S'IELTS'
p200
sg10
I00
sg11
I1352471918000
sg12
Nsg13
Nsg14
I26735
sg15
Nsg16
I1341624473000
sg17
S'2ee1d3df-fdfb-43f9-854e-b95da5267b9f'
p201
sg19
S'\xe8\x8b\xb1\xe8\xaf\xad'
p202
sg21
Nsbag2
(g3
g4
Ntp203
Rp204
(dp205
g8
S'pcn'
p206
sg10
I00
sg11
I1352471919000
sg12
Nsg13
Nsg14
I26736
sg15
Nsg16
I1348563100000
sg17
S'0767cfe1-abbc-4a0e-ab38-fc4ce82722ef'
p207
sg19
S'Study Notes'
p208
sg21
Nsbag2
(g3
g4
Ntp209
Rp210
(dp211
g8
S'\xe6\x8a\x84\xe5\x86\x99\xe8\xae\xb0\xe5\xbd\x95'
p212
sg10
I00
sg11
I1352471920000
sg12
Nsg13
Nsg14
I26737
sg15
Nsg16
I1330706225000
sg17
S'faa13963-dcea-4c53-b233-dbf053a3a75e'
p213
sg19
S'\xe8\x8b\xb1\xe8\xaf\xad'
p214
sg21
Nsbag2
(g3
g4
Ntp215
Rp216
(dp217
g8
S'fortran'
p218
sg10
I00
sg11
I1352471923000
sg12
Nsg13
Nsg14
I26738
sg15
Nsg16
I1320371915000
sg17
S'95ea2f90-9a15-4809-a0ff-44834d15e52e'
p219
sg19
S'Little Used'
p220
sg21
Nsbag2
(g3
g4
Ntp221
Rp222
(dp223
g8
S'\xe6\x9c\x89\xe7\x9b\x8a\xe8\xb5\x84\xe6\x96\x99'
p224
sg10
I00
sg11
I1355193996000
sg12
Nsg13
Nsg14
I26739
sg15
Nsg16
I1339939702000
sg17
S'9c55c4e3-8a9d-453d-88c2-db03fc71b661'
p225
sg19
S'\xe5\xb0\x8f\xe6\x96\x87\xe8\x89\xba'
p226
sg21
Nsbag2
(g3
g4
Ntp227
Rp228
(dp229
g8
S'\xe6\x96\xb0\xe6\xa6\x82\xe5\xbf\xb5'
p230
sg10
I00
sg11
I1352471926000
sg12
Nsg13
Nsg14
I26740
sg15
Nsg16
I1329467150000
sg17
S'315ccae8-2742-46be-bcee-c8df959eb33f'
p231
sg19
S'\xe8\x8b\xb1\xe8\xaf\xad'
p232
sg21
Nsbag2
(g3
g4
Ntp233
Rp234
(dp235
g8
S'\xe6\x88\x91\xe7\x9a\x84\xe6\x96\x87\xe6\xa1\xa3'
p236
sg10
I00
sg11
I1352957994000
sg12
Nsg13
Nsg14
I26741
sg15
Nsg16
I1346511441000
sg17
S'ee00ad4f-2728-4678-882d-de3b1c627cfd'
p237
sg19
S'Little Used'
p238
sg21
Nsbag2
(g3
g4
Ntp239
Rp240
(dp241
g8
S'\xe8\xb5\xb7\xe5\xb1\x85\xe6\xb3\xa8'
p242
sg10
I00
sg11
I1353047905000
sg12
Nsg13
Nsg14
I26742
sg15
Nsg16
I1344181695000
sg17
S'2d823cf2-7224-43ff-be76-f90f02dc3e71'
p243
sg19
Nsg21
Nsbag2
(g3
g4
Ntp244
Rp245
(dp246
g8
S'linux'
p247
sg10
I00
sg11
I1352555021000
sg12
Nsg13
Nsg14
I26743
sg15
Nsg16
I1288408029000
sg17
S'a129bc6e-8ea5-4e2d-a4bf-7acea1a2cec8'
p248
sg19
S'Tool'
p249
sg21
Nsbag2
(g3
g4
Ntp250
Rp251
(dp252
g8
S'mac'
p253
sg10
I00
sg11
I1352471938000
sg12
Nsg13
Nsg14
I26744
sg15
Nsg16
I1349671436000
sg17
S'cabdfe81-16fc-41d1-9dea-73418a73f502'
p254
sg19
S'Tool'
p255
sg21
Nsbag2
(g3
g4
Ntp256
Rp257
(dp258
g8
S'\xe9\x98\x85\xe8\xaf\xbb\xe8\xb5\x84\xe6\x96\x99'
p259
sg10
I00
sg11
I1355193996000
sg12
(lp260
I21138
aI21180
asg13
Nsg14
I26745
sg15
I00
sg16
I1350992059000
sg17
S'ec0e511f-e239-482f-987b-041e66ce6aaf'
p261
sg19
S'\xe5\xb0\x8f\xe6\x96\x87\xe8\x89\xba'
p262
sg21
g2
(cevernote.edam.type.ttypes
Publishing
p263
g4
Ntp264
Rp265
(dp266
S'ascending'
p267
I00
sS'uri'
p268
S'ifeng_reading'
p269
sS'publicDescription'
p270
NsS'order'
p271
I1
sbsbag2
(g3
g4
Ntp272
Rp273
(dp274
g8
S'\xe5\xae\x9e\xe9\xaa\x8c\xe5\xae\xa4\xe5\xb0\x8f\xe7\xab\x99'
p275
sg10
I00
sg11
I1352957991000
sg12
(lp276
I21182
aI21183
asg13
Nsg14
I26746
sg15
Nsg16
I1352359155000
sg17
S'5592020a-8f33-44d8-a8a1-9d6cf5dc82e5'
p277
sg19
S'\xe5\xb0\x8f\xe6\x96\x87\xe8\x89\xba'
p278
sg21
Nsbag2
(g3
g4
Ntp279
Rp280
(dp281
g8
S'workspace'
p282
sg10
I01
sg11
I1353471942000
sg12
Nsg13
Nsg14
I26748
sg15
Nsg16
I1352471945000
sg17
S'004ec16b-803d-4f68-a17a-64c9f1c53de6'
p283
sg19
Nsg21
Nsbag2
(g3
g4
Ntp284
Rp285
(dp286
g8
S'mathematica'
p287
sg10
I00
sg11
I1352630265000
sg12
Nsg13
Nsg14
I26856
sg15
Nsg16
I1352535965000
sg17
S'7e7ec457-6c0a-45b0-9e62-0d10f9f29909'
p288
sg19
S'Tool'
p289
sg21
Nsbag2
(g3
g4
Ntp290
Rp291
(dp292
g8
S'\xe4\xb9\xa6\xe7\x94\xbb'
p293
sg10
I00
sg11
I1353042961000
sg12
Nsg13
Nsg14
I27275
sg15
Nsg16
I1353042031000
sg17
S'5fa577da-ebd6-44b2-a6ea-32aafe992096'
p294
sg19
S'\xe5\xb0\x8f\xe6\x96\x87\xe8\x89\xba'
p295
sg21
Nsbag2
(g3
g4
Ntp296
Rp297
(dp298
g8
S'\xe8\xaf\x97\xe8\xaf\x8d'
p299
sg10
I00
sg11
I1353042961000
sg12
Nsg13
Nsg14
I27276
sg15
Nsg16
I1331907398000
sg17
S'8edd7acd-8d79-473d-9493-4f54de04d00d'
p300
sg19
S'\xe5\xb0\x8f\xe6\x96\x87\xe8\x89\xba'
p301
sg21
Nsbag2
(g3
g4
Ntp302
Rp303
(dp304
g8
S'\xe7\xad\x89\xe4\xb8\x80\xe4\xb8\xaa\xe6\x99\xb4\xe5\xa4\xa9'
p305
sg10
I00
sg11
I1353047905000
sg12
Nsg13
Nsg14
I27478
sg15
Nsg16
I1345556492000
sg17
S'5d32e672-1a51-4480-891e-d9efcdbf4922'
p306
sg19
S'\xe4\xb8\xaa\xe4\xba\xba\xe7\xa9\xba\xe9\x97\xb4'
p307
sg21
Nsbag2
(g3
g4
Ntp308
Rp309
(dp310
g8
S'\xe8\x8b\xb1\xe8\xaf\xad\xe8\xae\xb0\xe5\xbf\x86'
p311
sg10
I00
sg11
I1353423562000
sg12
Nsg13
Nsg14
I27611
sg15
Nsg16
I1345811842000
sg17
S'662330fa-4789-46fb-ae3a-9b75db01b9cb'
p312
sg19
S'\xe8\x8b\xb1\xe8\xaf\xad'
p313
sg21
Nsbag2
(g3
g4
Ntp314
Rp315
(dp316
g8
S'\xe4\xb9\xa6\xe5\xba\x93'
p317
sg10
I00
sg11
I1352471898000
sg12
(lp318
I22074
asg13
Nsg14
I27622
sg15
Nsg16
I1337957657000
sg17
S'a988187e-8819-49fa-a244-1f6c9139c868'
p319
sg19
S'\xe5\xb0\x8f\xe6\x96\x87\xe8\x89\xba'
p320
sg21
Nsbag2
(g3
g4
Ntp321
Rp322
(dp323
g8
S'Operating System'
p324
sg10
I00
sg11
I1354093532000
sg12
Nsg13
Nsg14
I28030
sg15
Nsg16
I1354093532000
sg17
S'58c0b55a-4e21-44c5-9bbf-418948ed10e4'
p325
sg19
S'Study Notes'
p326
sg21
Nsbag2
(g3
g4
Ntp327
Rp328
(dp329
g8
S'python'
p330
sg10
I00
sg11
I1354535317000
sg12
Nsg13
Nsg14
I28114
sg15
Nsg16
I1354535317000
sg17
S'2d3e3995-d9b1-4df5-811f-3ae778951f6b'
p331
sg19
S'Tool'
p332
sg21
Nsbaag2
(cevernote.edam.notestore.ttypes
NoteCollectionCounts
p333
g4
Ntp334
Rp335
(dp336
S'trashCount'
p337
NsS'notebookCounts'
p338
(dp339
S'4e63b5f5-f44a-4b3e-98ca-b648b63a152b'
p340
I60
sS'96f77ae8-0607-42a4-ab38-bc9796efb714'
p341
I5
sS'662330fa-4789-46fb-ae3a-9b75db01b9cb'
p342
I154
sS'5d32e672-1a51-4480-891e-d9efcdbf4922'
p343
I5
sS'ef2045a0-e65d-41c3-afbe-7bc3bab807f5'
p344
I55
sS'934b26c4-2cf7-4df0-b780-69b9dc5a35bf'
p345
I108
sS'9ff11478-6e18-48e4-9f28-e391a39abc36'
p346
I90
sS'0767cfe1-abbc-4a0e-ab38-fc4ce82722ef'
p347
I219
sS'7e7ec457-6c0a-45b0-9e62-0d10f9f29909'
p348
I2
sS'58c0b55a-4e21-44c5-9bbf-418948ed10e4'
p349
I2
sS'cabdfe81-16fc-41d1-9dea-73418a73f502'
p350
I7
sS'5592020a-8f33-44d8-a8a1-9d6cf5dc82e5'
p351
I7
sS'f3c1c21b-59e4-414e-9bd5-47d20b7825cb'
p352
I27
sS'96283d5f-eabe-4382-8056-ed2098ba3183'
p353
I9
sS'3f54291d-ab6b-4728-a5e1-0404d5453da5'
p354
I12
sS'dd5304d4-5e67-40ae-8686-b74ca2f13bf1'
p355
I260
sS'adb33df1-c358-45ec-8f4a-db97d66117c8'
p356
I27
sS'87c43257-5236-46fa-9b98-b33b5b00633c'
p357
I16
sS'f991925b-e596-46e1-9238-6e5220390816'
p358
I55
sS'ee00ad4f-2728-4678-882d-de3b1c627cfd'
p359
I23
sS'd9ea6fe2-fb7e-4951-9ef3-1761a10827f0'
p360
I27
sS'3e0f4164-10c5-4d67-ae5a-b4bb81d04292'
p361
I22
sS'961780cc-c4d2-4365-816f-a4a21e8b6db5'
p362
I50
sS'8edd7acd-8d79-473d-9493-4f54de04d00d'
p363
I29
sS'82b498dc-31b6-4e23-b1b9-d25efe15d017'
p364
I12
sS'da9b3d4d-700c-4270-acbb-0177f3e0f934'
p365
I60
sS'324339c0-76bc-452e-b052-860cf173df07'
p366
I87
sS'5fa577da-ebd6-44b2-a6ea-32aafe992096'
p367
I75
sS'c814ef0a-c6b0-4019-b43a-f15d185fe0ad'
p368
I24
sS'5e21ed7a-0705-4949-a90d-77c49e7fa763'
p369
I192
sS'b2eb7216-54c4-405f-a4be-649e0c7c6b13'
p370
I51
sS'e3a9caa0-d2bd-4915-9de8-7f97befcd6d5'
p371
I190
sS'cc95b62a-98a1-465e-b22c-8d153d9f5f60'
p372
I6
sS'52ab4ab2-f8a0-4748-9bb0-35f2a7d8e5a4'
p373
I34
sS'9c55c4e3-8a9d-453d-88c2-db03fc71b661'
p374
I13
sS'004ec16b-803d-4f68-a17a-64c9f1c53de6'
p375
I6
sS'a129bc6e-8ea5-4e2d-a4bf-7acea1a2cec8'
p376
I94
sS'faa13963-dcea-4c53-b233-dbf053a3a75e'
p377
I25
sS'95ea2f90-9a15-4809-a0ff-44834d15e52e'
p378
I38
sS'2ee1d3df-fdfb-43f9-854e-b95da5267b9f'
p379
I83
sS'44dbe6da-c310-4664-986d-69783fd81371'
p380
I88
sS'6581874a-24c9-4f16-b8b3-913afc527936'
p381
I63
sS'2d823cf2-7224-43ff-be76-f90f02dc3e71'
p382
I242
sS'a988187e-8819-49fa-a244-1f6c9139c868'
p383
I34
sS'948a721c-096f-4a68-ba85-1af7a5a879f2'
p384
I57
sS'a613e888-feba-4752-8edf-6cafbc5d6231'
p385
I116
sS'2d3e3995-d9b1-4df5-811f-3ae778951f6b'
p386
I59
sS'261d66ad-aa37-4390-9f07-7d69cf8e8ef7'
p387
I43
sS'315ccae8-2742-46be-bcee-c8df959eb33f'
p388
I104
sS'4f1527ff-15d4-420b-a077-6b3165d59448'
p389
I84
sS'ec0e511f-e239-482f-987b-041e66ce6aaf'
p390
I89
ssS'tagCounts'
p391
(dp392
S'fa10d799-be7f-43c2-8196-0a02542f08d0'
p393
I3
sS'43a6d4eb-2148-4c7b-9505-c159a8e827b3'
p394
I1
sS'af1f32af-9e6e-4ddd-9ba2-9c0e0ca5994b'
p395
I1
sS'0d2b9074-929d-47a3-8721-c596d0471152'
p396
I1
sS'4b00b897-a447-43bf-886a-2ca833904bb6'
p397
I14
sS'f848c023-7b4f-4fa9-9724-6d17c03221a2'
p398
I6
sS'7a78e62f-61c9-46e4-ad32-b30dade0533b'
p399
I1
sS'e0c396a7-615b-412c-b59f-d819afc4cb31'
p400
I6
sS'a451c9de-195c-4c7e-b597-6ac25ebc9dfa'
p401
I6
sS'fdaed6cd-2bbe-4f47-ba69-6841714dec62'
p402
I1
sS'2060b5c2-2bb0-471c-8bb9-a3cb52abf321'
p403
I6
sS'b836ff93-3244-4eef-a280-f0896a3279b8'
p404
I4
sS'f0cbcf12-5e63-4254-8093-1ee1829fe72d'
p405
I2
sS'cc8f934f-73b9-460f-baed-08b40e26a132'
p406
I56
sS'c706acef-de45-4a99-a291-0385a7810f0b'
p407
I1
sS'4b42609e-53a4-49f6-a3e6-5449f4048c13'
p408
I17
sS'8e448171-5dbf-4774-8cfc-e752946dd2c8'
p409
I85
sS'2b41c8d4-f63b-4518-a724-d42cbbb95db1'
p410
I16
sS'd14d11d2-a2d2-4441-996f-2e1abebc99c8'
p411
I1
sS'b8ca29d6-e0cc-478c-84a8-aa2e1ff12961'
p412
I46
sS'2d62856b-2bab-4545-8092-0dd3231831c7'
p413
I9
sS'dfab80b8-2fae-4efa-832c-349375a5f77a'
p414
I7
sS'ddb59151-aeee-4d96-b123-e1048f66cb8b'
p415
I2
sS'cfe486f6-18c3-4f6f-a5b8-95058cefe228'
p416
I44
sS'a8b91b77-5731-463f-88db-8021feb7e602'
p417
I4
sS'c1f9e928-6cb5-40b7-804a-fa6ed6dd66d2'
p418
I18
sS'7b9fbe81-7cd3-4929-847e-0789aa02e838'
p419
I1
sS'4cddcf24-7b0d-4e6f-866a-dbb44f998872'
p420
I48
sS'1fc5e661-2786-4aeb-9a81-9e65b5dbc62e'
p421
I9
sS'0f6f2267-90a6-443c-864c-77fdc4fa3b54'
p422
I12
sS'19d8a347-dd38-4676-bc9c-daa2a7468d58'
p423
I2
sS'f22af334-2ff4-4a30-b102-7be600ca4441'
p424
I6
sS'b68b9227-0895-4e19-a910-5e876a217e1e'
p425
I2
sS'83dae1ae-ca6f-402a-ab06-e944f012ab84'
p426
I6
sS'ff3fb7ae-8828-45b6-94cb-f95d32ab71e8'
p427
I67
sS'6bc9017f-d644-4120-80c7-6472b4c573fd'
p428
I5
sS'3f46f470-653b-41da-a77e-ab16780df548'
p429
I3
sS'32d6627d-b7dd-4ccc-bcb9-0166dc6b776c'
p430
I30
sS'ef446ec4-70e2-48e2-980b-41f6c6bd50a6'
p431
I2
sS'fdedf7bd-0ead-445d-9c84-0057102f359d'
p432
I1
sS'f7a8ab38-72df-424a-ad81-9b3cd22384d0'
p433
I16
sS'a015f786-4123-4c0f-96bd-ef2f0d31e7c6'
p434
I8
sS'73529a4e-8412-4b4c-b40f-c064a10aece7'
p435
I16
sS'9809eb50-7e63-432a-9d5a-928d5e952b3f'
p436
I11
sS'e3897e2e-64a0-466a-871b-15f8524c1578'
p437
I2
sS'adb12398-09ba-49d7-9357-4df9957fe4c6'
p438
I9
sS'dd41b665-07cc-4af7-92d9-a8f4c78e7520'
p439
I32
sS'2aa2e618-0ae2-466c-abcc-b064cc9af6f3'
p440
I10
sS'2258959e-0050-4f17-ab0e-112fcc3e9c58'
p441
I2
sS'b3a64c82-ed27-4e94-b0ae-8009025d9090'
p442
I6
sS'ef65d1ad-7fa5-49a2-b907-062ec2cbafa1'
p443
I25
sS'6fba34f0-9e0c-486c-b4a5-ae8ea0514693'
p444
I2
sS'208a52ee-a46a-4efa-ad2f-0df67d770bd0'
p445
I1
sS'1d3e0a8c-56dd-4393-990f-21d3728162ff'
p446
I2
sS'558cc246-3d18-413b-904f-8506fe178d5b'
p447
I5
sS'e99644f1-f264-4ac3-bd01-1e663db4b05c'
p448
I5
sS'ea386a41-df62-47df-a74b-6e56cbf598b6'
p449
I1
sS'8bb1cbfe-2003-4a4c-b2ce-9ccd96372e89'
p450
I14
sS'c4a9a650-d2cf-4bfa-9f93-02e2dbe2b855'
p451
I17
sS'c19da2ba-e777-4517-8dd1-e326278e9844'
p452
I51
sS'49451d41-2002-42a3-987e-17ef7e93d128'
p453
I2
sS'cd173046-00fe-4463-a4d4-fda22dc64077'
p454
I9
sS'63d78d8e-cf75-44d7-9f55-7c67bc0f8dd2'
p455
I1
sS'9f84a01f-351f-4444-a46f-a4ecc1ff4ccc'
p456
I4
sS'244d01ad-af68-4481-8eb9-0978e29aeb8f'
p457
I1
sS'362f91cb-de83-4b8c-aef1-d41cacc5b7e0'
p458
I2
sS'4e262073-6d0a-4000-a8e2-ad364d48cd2d'
p459
I37
sS'4750b6a8-c3c3-4cc3-ac81-863638d8e0df'
p460
I1
sS'64e3b706-e69c-4f88-b3fc-ac0191f7212f'
p461
I2
sS'1cfe0b61-6174-411b-8024-da5700f7ea7b'
p462
I11
sS'a18f8787-fbbe-498f-a4ec-50a936c94be2'
p463
I5
sS'3a0d5e3a-bffb-4343-8e8c-678a6f1b0785'
p464
I27
sS'f7aef3d0-028e-4513-88f9-987d4b1363a5'
p465
I2
sS'd1547951-c12c-463f-a410-52243d965450'
p466
I3
sS'8c3bbfc0-75ba-48d0-8323-fb864db3e45b'
p467
I10
sS'8bbf676e-0f59-4db4-9891-cf9c1d0e1c55'
p468
I22
sS'db756c64-ad52-4dd6-a72e-6fff2bab48ea'
p469
I11
sS'96e5e2c8-96c4-47d5-8f31-c26807641522'
p470
I9
sS'eb0cdde6-5518-4ce7-b129-86e6d121dad0'
p471
I4
sS'e1e97ebc-f00d-4ae4-a3e0-a56868e80e1c'
p472
I12
sS'4644d828-6da8-4e91-bde0-ee60c255295d'
p473
I1
sS'211cc731-4491-4964-8bf3-2b9b2c2a9f57'
p474
I2
sS'9f04f8fa-982c-493b-909c-9536b070175e'
p475
I16
sS'cb32b56e-8e8f-4d64-af89-8858c1410e83'
p476
I27
sS'30ada4b4-3985-4550-b253-219079fb3fd0'
p477
I13
sS'93c2668d-cdfa-4fd9-a871-ecdcb0aedfb7'
p478
I1
sS'f9d4ee74-d963-4108-8bbc-d5d7f4790863'
p479
I4
sS'f4d40ef7-e80d-4d36-bf79-8acc3fd66bbb'
p480
I3
sS'8c1b6642-b9b7-473d-a89e-12b94c6b05f0'
p481
I18
sS'2f3037c1-258d-440e-96f5-16a04ba0d6fd'
p482
I4
sS'1f89821c-4b7f-41a3-b1be-1fa93fba6e2e'
p483
I23
sS'1ed51801-1dfe-4a63-bb8b-2535b76af209'
p484
I5
sS'582f421b-adfa-4a7b-b3d3-73c3cb891a42'
p485
I1
sS'01b65d21-d774-4da7-9184-a2d78c31753e'
p486
I1
sS'bb321878-708f-4c6e-bfdf-133d0ac44ba2'
p487
I27
sS'85fd1e7d-1faa-4d86-ab55-bf837574290f'
p488
I6
sS'd99b005f-a63c-4aaa-a6ae-fc51bcf85922'
p489
I1
sS'87437732-d7f2-4257-a488-d40470747f09'
p490
I1
sS'305b07c4-a20c-45b2-892c-33f70d35940c'
p491
I7
sS'1beb0562-4b36-4780-bdcf-d6418f174686'
p492
I8
sS'bbf17d90-32ac-4a7d-a784-af0e966ee8f5'
p493
I2
sS'29a09fe5-3d52-49cd-a6ba-7bafbe005a3a'
p494
I8
sS'5a03a1bf-4776-471d-9e64-d973ad051edc'
p495
I5
sS'f3b470e1-667a-46b1-9a8c-13e45adcfbcf'
p496
I11
sS'563456cb-a708-4ec0-aacf-846366e9a38d'
p497
I1
sS'435f0fd4-f9dd-4da0-9207-706061d875f7'
p498
I5
sS'bfcc8fc4-b764-42da-ab22-4de6e00f0006'
p499
I17
sS'9b4a5218-ec60-4ccd-9817-e1c985c6b948'
p500
I23
sS'95629528-27e5-450a-9fcb-f6163c826192'
p501
I8
sS'3cd9e0ab-45f2-4208-a387-323d3cc5fa7b'
p502
I3
sS'b2c6ca95-2974-4cb9-8932-28fda27391de'
p503
I5
sS'63160302-ae83-4358-b988-9c7b4aa76173'
p504
I2
sS'491c00db-87e1-4701-a30c-9ef36fb02b18'
p505
I7
sS'9d9a5c63-fc25-460b-9f1d-dc2c93af7814'
p506
I20
sS'2d525aaf-6d31-4ad0-8a94-3dba6286bab4'
p507
I7
sS'8f88d803-b98d-4a07-9c14-91ee66322faf'
p508
I3
sS'84028f83-3fcd-4968-8081-81dfa39231c1'
p509
I30
sS'd4e1a228-9653-41cb-b0bc-c7dd2cf2a952'
p510
I2
sS'8e32ed72-b115-4846-afb9-960317c65c55'
p511
I2
sS'665b6791-e497-4401-a69d-3530bf183d59'
p512
I1
sS'a23cf13e-0b15-4ada-b9cd-302fe4b44407'
p513
I11
sS'45e162c5-459d-4790-ba1d-0d8ce064d08c'
p514
I1
sS'78273db2-f447-4176-aea1-605fe7f86e7f'
p515
I12
sS'e7dfa079-0905-4910-af08-74900a591165'
p516
I4
sS'559310ec-106d-43b1-8d7a-ff1d0e864783'
p517
I1
sS'042e89a8-bad9-47c3-8b64-b40b8b618263'
p518
I1
sS'7d717570-2ef5-452b-b216-86912a65b3ae'
p519
I13
sS'2e729b66-a465-4664-8134-bc0044ae6b22'
p520
I11
sS'993ee2ce-bd47-4976-aee9-ac405fe1271f'
p521
I12
sS'b716977f-ca38-4824-a8c3-0ef1c96a36cb'
p522
I9
sS'b5477cea-f638-46fb-baf3-281d42ca7fea'
p523
I4
sS'1903da59-151f-4b2d-9a68-2ee4d498bdc5'
p524
I21
sS'3e1b5963-2608-4452-97f1-a96806d1208d'
p525
I1
sS'0024d578-feff-41fd-88e8-a9e559f601a0'
p526
I40
sS'bf36e3a5-9aab-49c0-9696-c3382654fce5'
p527
I7
sS'eca75d59-c910-4956-8e57-794f9f94d766'
p528
I4
sS'4e8a1a51-a5b9-4bad-af5f-d4e7d1749b4f'
p529
I2
sS'04902e02-e296-4978-83a0-3bb1178fa8cc'
p530
I4
sS'35100b55-1181-4bf8-8105-94e91e9c4f32'
p531
I9
sS'27ffd17e-19e7-4670-8bde-f1431fda716e'
p532
I1
sS'869ea631-471d-4b7e-b818-2ed4fefdb50e'
p533
I1
sS'8f39937a-6348-460a-a6b0-8f5a7fe861d1'
p534
I1
sS'415bed2f-ad87-40cc-ab1a-2de9b164ae29'
p535
I5
sS'768e8a6d-73cc-410f-8fd4-0903c256bc05'
p536
I14
sS'a30cdb5c-0428-4a83-8839-5e1479cbe3c8'
p537
I26
sS'bcac8ede-27fa-45fa-9d11-8139f8617a25'
p538
I41
sS'6e80e90e-4b82-42fc-946c-65ba140587e1'
p539
I5
sS'fd2607b7-f893-4f01-9f3c-f664a87651cb'
p540
I10
sS'933b25b7-4f6c-4c70-a1bc-c284fc27219a'
p541
I1
sS'be3f9455-6d12-4f80-b06b-7cae01df08f5'
p542
I3
sS'0b323def-a1d9-4a87-bcfb-7a99a1cf31bf'
p543
I2
sS'74297464-700d-4e6f-87c6-fd5b1dddb5dc'
p544
I16
sS'7e4eafda-d92b-4181-be9a-145377b3d400'
p545
I2
sS'd489b7d0-3e55-41e1-bf88-f9dcad518c88'
p546
I1
sS'b2eb43d4-40f8-4fa1-9565-557b4e0bf58b'
p547
I90
sS'dd5830af-f27c-412f-a175-3642b61e3b25'
p548
I2
sS'50a44373-17f0-4ddc-ad56-451d88b7bc3b'
p549
I15
sS'2f2df483-b08f-487c-824e-2db16d61f1d3'
p550
I18
sS'0ec77a07-e54d-4fdb-a47e-73ab6be10841'
p551
I6
sS'80a59613-2466-4dad-8126-d0cf5a50702d'
p552
I2
sS'2e6b6370-628a-4825-bab2-0b20eccff8f3'
p553
I23
sS'8f38fdb4-7213-44fd-bd0e-d6ce731b2b18'
p554
I73
sS'd1a54674-76c3-45e2-a66d-080934faf4a2'
p555
I1
sS'869c5543-920d-441b-99e8-7ddf540196aa'
p556
I2
sS'2b2f3ab8-df3d-486d-b15c-13be2e0c9aab'
p557
I5
sS'6bfdb860-14e3-43b8-80f0-0735d06cbfb8'
p558
I1
sS'82da8ec6-e393-4b9b-870d-d65434905107'
p559
I3
sS'2ca330e9-78a2-4ffb-aa79-6e53ae63a35c'
p560
I5
sS'b1792d45-aa59-4a9a-9da3-332e758830f8'
p561
I9
sS'fc5fae08-64e1-408c-8ef3-743aa04fbead'
p562
I2
sS'bd5a20b0-ade3-46be-9dd9-29e7516a82ab'
p563
I12
sS'7f99ec70-a8a6-48db-91bf-973439089286'
p564
I7
sS'5322d60b-9a14-486a-a50a-9bf7aa281585'
p565
I9
sS'1548090b-22bd-4c51-afe8-3e439184386a'
p566
I2
sS'210435ad-3a07-4a2a-87e8-fe34941d480a'
p567
I10
sS'1182b618-df22-4231-96ce-28a9011eabb5'
p568
I2
sS'e1c5124d-a0cf-45c9-b8c6-8efdc2effc4c'
p569
I13
sS'c2fbde02-a6b5-40e6-ad32-c007c1e2fcba'
p570
I1
sS'3378a341-505d-4871-8450-1f599a7a4705'
p571
I2
sS'229bd4a1-d686-48b3-8983-32300325e3ca'
p572
I2
sS'8262ed2b-c1b1-4436-9d71-66f64c8dfbb0'
p573
I32
sS'31e5505f-65ab-4193-afbb-36664beaa027'
p574
I9
sS'983c3dee-a960-4f01-9310-a6e93d12e26f'
p575
I61
sS'5132c594-0d79-4f33-88e6-2bf117d28839'
p576
I2
sS'4549a066-4432-4a72-8be3-1d885ab22e74'
p577
I4
sS'57edd2f2-4740-4fb0-9858-1618e74f8146'
p578
I9
sS'370e817f-5bc9-481f-898c-9c18ccef8c41'
p579
I3
sS'670f1f0d-4d0f-4133-b8a8-5cb14279f850'
p580
I1
sS'f50b3302-d72a-44ae-bf95-99700677c428'
p581
I187
sS'fe6e99c0-6f95-457f-9523-89e329d852cf'
p582
I1
sS'2e349981-f463-4d66-9849-66f9b7142671'
p583
I1
sS'1039004f-1dbd-4b0f-affd-e416816184b2'
p584
I1
sS'91961fd3-8145-4151-b4d3-6a14233719fe'
p585
I2
sS'30ce2069-05f9-494e-a3fd-19e9bd964069'
p586
I12
sS'e743c78a-5f22-4e51-9d9f-5a73517e49a6'
p587
I2
sS'e3ed8be4-6862-4723-a13f-00cef33db5b5'
p588
I28
sS'901fcd7b-d86b-4c6f-9e61-20cce930a024'
p589
I2
sS'0f48080c-67a4-4d1d-be69-0495a640ddb8'
p590
I9
sS'12ac6cc9-dca3-4b5b-a7a7-517170ebd33a'
p591
I29
sS'c4a65171-9d68-4719-a65e-c284ca07b489'
p592
I5
sS'b6874e4a-aedc-44aa-bd7d-4472654508b9'
p593
I2
sS'b1180a03-f49a-466b-a83e-c928c29d82e2'
p594
I24
sS'a72aca1f-1ffc-49d3-8a13-cb1fe650dd02'
p595
I2
sS'bf6f46f4-60c1-4ff6-aff7-5a21a0512556'
p596
I24
sS'bccabe7f-9687-436c-9ecf-ebce4e94401e'
p597
I3
sS'921af574-a1cf-43dd-922b-50b7b84d3ad0'
p598
I23
sS'2e37ffec-54b1-4e2b-8aa0-0ddd995c3a7f'
p599
I3
sS'60c02dca-31d9-4949-916f-fb767e77c67d'
p600
I1
sS'1092571a-9c9d-4f6c-9e7a-14867d6d0918'
p601
I4
sS'0b8b431b-aed1-4fd9-a3cb-0fcfc5b51765'
p602
I10
sS'0d5375c6-8cec-45d9-a6e6-7eff172483ba'
p603
I2
sS'3c3e9669-af07-420e-a6e2-6105a9e28716'
p604
I9
sS'2103fd08-df57-425a-a8ed-d16504a1cae5'
p605
I2
sS'c41f73d7-6cb8-4f4f-994d-6ba37f893096'
p606
I12
sS'56b5ee1d-62c6-4103-b497-92ba87436635'
p607
I12
sS'f86b300c-a103-4b58-aaa0-7161b9e414eb'
p608
I1
sS'2772739b-565a-46da-bed2-4d5df240934b'
p609
I4
sS'41db5ec0-55e5-48b1-b57f-5a1e440b01b9'
p610
I2
sS'33e8f798-a162-4774-a4be-43305ec2115e'
p611
I12
sS'5b35e240-8229-4efe-83b4-b7acb7bbfa12'
p612
I2
sS'ab7fd0cc-1870-403f-9bee-77cc49683a7a'
p613
I1
ssba.