ccopy_reg
_reconstructor
p0
(cevernote.edam.notestore.ttypes
NoteCollectionCounts
p1
c__builtin__
object
p2
Ntp3
Rp4
(dp5
S'trashCount'
p6
NsS'notebookCounts'
p7
(dp8
S'9ae99323-69a8-45bb-b697-ccb254bd713a'
p9
I1
sS'21cc0d07-e19b-477d-ba99-a3ba802ccfa1'
p10
I1
sS'c26d180d-5520-494f-82c0-31a4eb1353af'
p11
I1
ssS'tagCounts'
p12
Nsb.