(dp0
S'ffbf6cf3-a98a-4b23-878a-3b53c692af7f'
p1
(lp2
cdatetime
date
p3
(S'\x07\xdc\x0c\x12'
p4
tp5
Rp6
aI0
asS'9c2d501c-cfb0-4968-b439-3d6b23a6ba01'
p7
(lp8
g3
(S'\x07\xdc\x0c\x12'
p9
tp10
Rp11
aI0
asS'bc3bf50e-119d-44d0-b72a-692928c4147f'
p12
(lp13
g3
(S'\x07\xdc\x0c\x12'
p14
tp15
Rp16
aI0
asS'42b542f8-89f3-46d0-934b-78d34ad7dc1a'
p17
(lp18
g3
(S'\x07\xdc\x0c\x12'
p19
tp20
Rp21
aI0
asS'4eff90af-e3f4-4014-94c5-0a7266f100c9'
p22
(lp23
g3
(S'\x07\xdc\x0c\x12'
p24
tp25
Rp26
aI0
asS'a3da5714-76d2-4fc0-9be7-387cb3c2b91f'
p27
(lp28
g3
(S'\x07\xdc\x0c\x12'
p29
tp30
Rp31
aI0
asS'b80619b6-bc08-4128-ad75-0066add2ab66'
p32
(lp33
g3
(S'\x07\xdc\x0c\x12'
p34
tp35
Rp36
aI0
asS'7b544f84-f146-4122-9508-0ac383c2ba5d'
p37
(lp38
g3
(S'\x07\xdc\x0c\x12'
p39
tp40
Rp41
aI0
asS'4d1bf22b-73d7-4e1a-87d4-5ecf1379cdf0'
p42
(lp43
g3
(S'\x07\xdc\x0c\x12'
p44
tp45
Rp46
aI0
asS'f6467441-31e0-4d14-b5c4-3946ab1c1ceb'
p47
(lp48
g3
(S'\x07\xdc\x0c\x12'
p49
tp50
Rp51
aI0
asS'133ddeeb-fd91-4e49-8e10-57f75313e775'
p52
(lp53
g3
(S'\x07\xdc\x0c\x12'
p54
tp55
Rp56
aI0
asS'b5b7dc62-e070-4a8d-b8d3-39acb628d9dd'
p57
(lp58
g3
(S'\x07\xdc\x0c\x12'
p59
tp60
Rp61
aI-1
asS'43b1d179-8ddd-4650-b57a-eaeee4f59466'
p62
(lp63
g3
(S'\x07\xdc\x0c\x12'
p64
tp65
Rp66
aI0
asS'680dc357-c871-419c-ab5a-58b80b5017cb'
p67
(lp68
g3
(S'\x07\xdc\x0c\x12'
p69
tp70
Rp71
aI0
asS'33c6bab5-8914-40c9-9d90-ef126ba66ce3'
p72
(lp73
g3
(S'\x07\xdc\x0c\x12'
p74
tp75
Rp76
aI0
asS'29d2a603-546b-4a78-8929-c5ff4eea7c5f'
p77
(lp78
g3
(S'\x07\xdc\x0c\x12'
p79
tp80
Rp81
aI0
asS'8f3dfe2d-f88f-4cce-a3b1-d4ed1649e431'
p82
(lp83
g3
(S'\x07\xdc\x0c\x12'
p84
tp85
Rp86
aI0
asS'84188eed-06ec-4674-bae4-45fde3401356'
p87
(lp88
g3
(S'\x07\xdc\x0c\x12'
p89
tp90
Rp91
aI0
asS'fd51c419-0766-4d2b-87dc-93b1d5f9fe59'
p92
(lp93
g3
(S'\x07\xdc\x0c\x12'
p94
tp95
Rp96
aI0
asS'ce9d7540-d92a-461c-aeb8-0a0773035189'
p97
(lp98
g3
(S'\x07\xdc\x0c\x12'
p99
tp100
Rp101
aI-1
asS'd22ee6d2-b45e-4c89-aece-298ec5a27ab4'
p102
(lp103
g3
(S'\x07\xdc\x0c\x12'
p104
tp105
Rp106
aI0
asS'20acac58-21fd-47fa-8a9d-dd7ed7b9489f'
p107
(lp108
g3
(S'\x07\xdc\x0c\x12'
p109
tp110
Rp111
aI0
asS'f816157f-516f-4096-9622-5a0dedc6a827'
p112
(lp113
g3
(S'\x07\xdc\x0c\x12'
p114
tp115
Rp116
aI-1
asS'bd2813d1-fbb8-4b98-a9f4-f71715c03a08'
p117
(lp118
g3
(S'\x07\xdc\x0c\x12'
p119
tp120
Rp121
aI0
asS'41a6c093-e548-4275-b80e-c1cdce91527b'
p122
(lp123
g3
(S'\x07\xdc\x0c\x12'
p124
tp125
Rp126
aI0
asS'd79f462e-3aa6-46a7-8fc9-641d130625b8'
p127
(lp128
g3
(S'\x07\xdc\x0c\x12'
p129
tp130
Rp131
aI0
asS'2c61d0b8-e959-4109-a991-5545c259ba39'
p132
(lp133
g3
(S'\x07\xdc\x0c\x12'
p134
tp135
Rp136
aI0
asS'1a63a581-b6bd-45fc-8c15-d335e358dfd5'
p137
(lp138
g3
(S'\x07\xdc\x0c\x12'
p139
tp140
Rp141
aI0
asS'408a44c1-f5ee-45df-91c7-1e3be264201e'
p142
(lp143
g3
(S'\x07\xdc\x0c\x12'
p144
tp145
Rp146
aI0
asS'142a0ead-1a83-4f71-86fd-7419e6ab5fbd'
p147
(lp148
g3
(S'\x07\xdc\x0c\x12'
p149
tp150
Rp151
aI0
asS'b328aa8d-1be7-4e5d-b213-031574075d8b'
p152
(lp153
g3
(S'\x07\xdc\x0c\x12'
p154
tp155
Rp156
aI0
asS'f6ec4a8f-08e1-4d33-8bd0-62e43973645f'
p157
(lp158
g3
(S'\x07\xdc\x0c\x12'
p159
tp160
Rp161
aI0
asS'4c1fe2bd-85f1-444e-9aa6-50e95f42aa07'
p162
(lp163
g3
(S'\x07\xdc\x0c\x12'
p164
tp165
Rp166
aI0
asS'6331d824-04f4-4546-8e4a-98fee80d788d'
p167
(lp168
g3
(S'\x07\xdc\x0c\x12'
p169
tp170
Rp171
aI0
asS'7cc6dc79-2fdc-4e17-a25e-d87d5661b429'
p172
(lp173
g3
(S'\x07\xdc\x0c\x12'
p174
tp175
Rp176
aI0
asS'22abf9ee-1f60-4175-ae8d-c209ca9fe840'
p177
(lp178
g3
(S'\x07\xdc\x0c\x12'
p179
tp180
Rp181
aI0
asS'4abf017b-6c5f-4f53-b73b-4f77d10204c7'
p182
(lp183
g3
(S'\x07\xdc\x0c\x12'
p184
tp185
Rp186
aI0
asS'3cc64968-580e-49f5-a218-ccaf8c191c9a'
p187
(lp188
g3
(S'\x07\xdc\x0c\x12'
p189
tp190
Rp191
aI0
asS'9a6946ae-4078-463d-b920-3182b399561d'
p192
(lp193
g3
(S'\x07\xdc\x0c\x12'
p194
tp195
Rp196
aI0
asS'72189577-d9c7-4e27-86ae-48c6ca6a304f'
p197
(lp198
g3
(S'\x07\xdc\x0c\x12'
p199
tp200
Rp201
aI0
asS'76b0fb32-1473-4763-8966-3583364f1b48'
p202
(lp203
g3
(S'\x07\xdc\x0c\x12'
p204
tp205
Rp206
aI0
asS'7f9a8d8f-ef30-4375-aed4-8b97225bd3a9'
p207
(lp208
g3
(S'\x07\xdc\x0c\x12'
p209
tp210
Rp211
aI0
asS'e4eebd19-677d-41c7-b4c7-a89496a8cd99'
p212
(lp213
g3
(S'\x07\xdc\x0c\x12'
p214
tp215
Rp216
aI0
asS'407c8749-dc23-4f95-a382-8c7ed768a562'
p217
(lp218
g3
(S'\x07\xdc\x0c\x12'
p219
tp220
Rp221
aI0
asS'403668f5-5993-4c55-99ca-716336e68b58'
p222
(lp223
g3
(S'\x07\xdc\x0c\x12'
p224
tp225
Rp226
aI0
asS'0d894d7c-2539-4206-8047-1b8975b3453f'
p227
(lp228
g3
(S'\x07\xdc\x0c\x12'
p229
tp230
Rp231
aI0
asS'bfbfbc4e-1a48-4e0e-81d4-83f42a0701d5'
p232
(lp233
g3
(S'\x07\xdc\x0c\x12'
p234
tp235
Rp236
aI0
asS'9a86200a-09e7-4143-89b9-89c762795649'
p237
(lp238
g3
(S'\x07\xdc\x0c\x12'
p239
tp240
Rp241
aI0
asS'38e26842-cdfc-4e30-9bac-4f61ccdd1f13'
p242
(lp243
g3
(S'\x07\xdc\x0c\x12'
p244
tp245
Rp246
aI0
asS'2df84250-6d6e-4aea-a3ed-09d8748adaa9'
p247
(lp248
g3
(S'\x07\xdc\x0c\x12'
p249
tp250
Rp251
aI0
as.