(dp0
S'bf5581dc-d4d2-4bac-b082-d767f7376be1'
p1
(lp2
cdatetime
date
p3
(S'\x07\xdc\x0c\x12'
p4
tp5
Rp6
aI0
asS'7c602313-211e-48c7-be77-95fe8c079710'
p7
(lp8
g3
(S'\x07\xdc\x0c\x12'
p9
tp10
Rp11
aI0
asS'0b7b2542-3709-4c54-9f8b-317ef8ef955f'
p12
(lp13
g3
(S'\x07\xdc\x0c\x12'
p14
tp15
Rp16
aI0
asS'e563faca-5134-4d40-b4ca-d67e2f5b35b7'
p17
(lp18
g3
(S'\x07\xdc\x0c\x12'
p19
tp20
Rp21
aI0
asS'8db49ca7-7234-4d52-9b86-ad0501529d1d'
p22
(lp23
g3
(S'\x07\xdc\x0c\x12'
p24
tp25
Rp26
aI0
asS'3fd89a68-2ee2-42ef-a540-e24dc3810eff'
p27
(lp28
g3
(S'\x07\xdc\x0c\x12'
p29
tp30
Rp31
aI0
asS'330ea71b-b261-4495-825f-2aba7ad70252'
p32
(lp33
g3
(S'\x07\xdc\x0c\x12'
p34
tp35
Rp36
aI0
asS'df5a6aed-cbf8-4d66-ad57-9b28759792e2'
p37
(lp38
g3
(S'\x07\xdc\x0c\x12'
p39
tp40
Rp41
aI0
asS'345cf4df-55f8-4def-996a-9572a65bf492'
p42
(lp43
g3
(S'\x07\xdc\x0c\x12'
p44
tp45
Rp46
aI0
asS'9a44760d-c59d-4ca8-b6e9-8afcdb5d3a3c'
p47
(lp48
g3
(S'\x07\xdc\x0c\x12'
p49
tp50
Rp51
aI0
asS'c1cc9664-1419-41fa-afa9-6c89441f5298'
p52
(lp53
g3
(S'\x07\xdc\x0c\x12'
p54
tp55
Rp56
aI0
asS'121e3ca9-5fe7-4ed4-830c-a72378e84d37'
p57
(lp58
g3
(S'\x07\xdc\x0c\x12'
p59
tp60
Rp61
aI0
asS'106338c7-e69a-40b9-9cf3-b1bb426bbaff'
p62
(lp63
g3
(S'\x07\xdc\x0c\x12'
p64
tp65
Rp66
aI0
asS'f22b0ac3-5973-4aab-a663-e6260a369a58'
p67
(lp68
g3
(S'\x07\xdc\x0c\x12'
p69
tp70
Rp71
aI0
asS'099e0526-5351-40a6-b0a8-e9c6b5e58b1c'
p72
(lp73
g3
(S'\x07\xdc\x0c\x12'
p74
tp75
Rp76
aI0
asS'31b87cc6-488e-4004-b40a-e46b5babd93e'
p77
(lp78
g3
(S'\x07\xdc\x0c\x12'
p79
tp80
Rp81
aI0
asS'9e18d95b-1278-4da6-89f1-2430e1f5a7a2'
p82
(lp83
g3
(S'\x07\xdc\x0c\x12'
p84
tp85
Rp86
aI0
asS'8ad189c8-8329-4538-9d9a-a6c5464bbbef'
p87
(lp88
g3
(S'\x07\xdc\x0c\x12'
p89
tp90
Rp91
aI0
asS'fb24b744-75cb-41c7-8b3b-2860b4460ef9'
p92
(lp93
g3
(S'\x07\xdc\x0c\x12'
p94
tp95
Rp96
aI0
asS'5241ee45-33b3-4dbb-83b5-1bdd4b6a5be2'
p97
(lp98
g3
(S'\x07\xdc\x0c\x12'
p99
tp100
Rp101
aI0
asS'6201fa39-7a4a-4d88-9866-93383fa5020a'
p102
(lp103
g3
(S'\x07\xdc\x0c\x12'
p104
tp105
Rp106
aI0
asS'0c4405f4-c7fb-41be-a44b-397a1a7cedd8'
p107
(lp108
g3
(S'\x07\xdc\x0c\x12'
p109
tp110
Rp111
aI0
asS'589262af-fb46-4f5e-973d-6aff75f5b0b9'
p112
(lp113
g3
(S'\x07\xdc\x0c\x12'
p114
tp115
Rp116
aI0
asS'2e039f97-7651-45d3-9707-3fdf81c3270c'
p117
(lp118
g3
(S'\x07\xdc\x0c\x12'
p119
tp120
Rp121
aI0
asS'efb5d1b7-d6fd-4381-b0d3-ef9c19b246a1'
p122
(lp123
g3
(S'\x07\xdc\x0c\x12'
p124
tp125
Rp126
aI0
asS'52743051-9281-4ab7-be2e-8cbff7f84236'
p127
(lp128
g3
(S'\x07\xdc\x0c\x12'
p129
tp130
Rp131
aI0
asS'ce7bada6-6865-4887-a0c3-bacc2b203655'
p132
(lp133
g3
(S'\x07\xdc\x0c\x12'
p134
tp135
Rp136
aI0
asS'0637da31-d93f-42d8-8db3-8dc582c4f45c'
p137
(lp138
g3
(S'\x07\xdc\x0c\x12'
p139
tp140
Rp141
aI0
asS'24eb4d26-9ac4-4015-96cd-320d9ac030cc'
p142
(lp143
g3
(S'\x07\xdc\x0c\x12'
p144
tp145
Rp146
aI0
asS'dd0bb723-cd5b-481b-a02b-62e218c491a7'
p147
(lp148
g3
(S'\x07\xdc\x0c\x12'
p149
tp150
Rp151
aI0
asS'bbed10df-d5ec-4f41-a381-2527b2f1e50e'
p152
(lp153
g3
(S'\x07\xdc\x0c\x12'
p154
tp155
Rp156
aI0
asS'fbbfafe7-7d83-4486-82d1-8482ce5ef05b'
p157
(lp158
g3
(S'\x07\xdc\x0c\x12'
p159
tp160
Rp161
aI0
asS'af5d827b-b272-40ac-a715-38cc262230ae'
p162
(lp163
g3
(S'\x07\xdc\x0c\x12'
p164
tp165
Rp166
aI0
asS'e7025b34-52ee-4377-a631-bd67fd88199c'
p167
(lp168
g3
(S'\x07\xdc\x0c\x12'
p169
tp170
Rp171
aI0
asS'd5361600-0516-4f46-8d4c-76e93c423e20'
p172
(lp173
g3
(S'\x07\xdc\x0c\x12'
p174
tp175
Rp176
aI0
asS'6b87a728-870e-45b1-aff6-4829df3fda44'
p177
(lp178
g3
(S'\x07\xdc\x0c\x12'
p179
tp180
Rp181
aI0
asS'53793548-64d9-41fa-b213-b3d285f5f9ed'
p182
(lp183
g3
(S'\x07\xdc\x0c\x12'
p184
tp185
Rp186
aI0
asS'073fd1e3-3253-42c9-b629-5cbc61d809d1'
p187
(lp188
g3
(S'\x07\xdc\x0c\x12'
p189
tp190
Rp191
aI0
asS'309a3470-1548-451a-8d49-f4d036dcff01'
p192
(lp193
g3
(S'\x07\xdc\x0c\x12'
p194
tp195
Rp196
aI0
asS'7d45dafd-f323-4e1b-9889-0aab6c6e5807'
p197
(lp198
g3
(S'\x07\xdc\x0c\x12'
p199
tp200
Rp201
aI0
asS'd2567f0a-bc76-480f-9c94-8f786b759c50'
p202
(lp203
g3
(S'\x07\xdc\x0c\x12'
p204
tp205
Rp206
aI0
asS'301913cb-07df-4dda-8de7-b27f8bdf27bf'
p207
(lp208
g3
(S'\x07\xdc\x0c\x12'
p209
tp210
Rp211
aI0
asS'bbaf1fd5-df82-4cb6-aaa1-50e514a2681b'
p212
(lp213
g3
(S'\x07\xdc\x0c\x12'
p214
tp215
Rp216
aI0
asS'2e8727d5-e9ca-4801-9a43-e1d3f8b2a50d'
p217
(lp218
g3
(S'\x07\xdc\x0c\x12'
p219
tp220
Rp221
aI0
asS'60fe6b04-d8fb-4c7c-a195-9f0df89f6cd1'
p222
(lp223
g3
(S'\x07\xdc\x0c\x12'
p224
tp225
Rp226
aI0
asS'a35380dd-7f39-4fa4-80bf-c352e123d2ea'
p227
(lp228
g3
(S'\x07\xdc\x0c\x12'
p229
tp230
Rp231
aI0
asS'f4f7cb69-1657-4ca1-86a1-7812fa501201'
p232
(lp233
g3
(S'\x07\xdc\x0c\x12'
p234
tp235
Rp236
aI0
asS'f8e16bfc-707c-4327-be53-942eb72822bc'
p237
(lp238
g3
(S'\x07\xdc\x0c\x12'
p239
tp240
Rp241
aI0
asS'53e0d304-4617-4b28-8247-68f56c9fdb00'
p242
(lp243
g3
(S'\x07\xdc\x0c\x12'
p244
tp245
Rp246
aI0
asS'2616ddac-32e2-4323-92c3-0b9e82b07b40'
p247
(lp248
g3
(S'\x07\xdc\x0c\x12'
p249
tp250
Rp251
aI0
asS'99619bc5-3ba8-4e43-af88-619d8ecadd52'
p252
(lp253
g3
(S'\x07\xdc\x0c\x12'
p254
tp255
Rp256
aI0
asS'24923122-f0b4-4301-95e4-460176ba9f08'
p257
(lp258
g3
(S'\x07\xdc\x0c\x12'
p259
tp260
Rp261
aI0
asS'1864f6f7-085f-4914-ad5e-4501eaa02f7c'
p262
(lp263
g3
(S'\x07\xdc\x0c\x12'
p264
tp265
Rp266
aI0
asS'3256b926-48fd-4825-8563-340398d4468f'
p267
(lp268
g3
(S'\x07\xdc\x0c\x12'
p269
tp270
Rp271
aI0
asS'f2dc527c-5e17-4ab8-b107-49c6bbf7f359'
p272
(lp273
g3
(S'\x07\xdc\x0c\x12'
p274
tp275
Rp276
aI0
asS'9e72ccdc-c810-4961-a447-d49905a14474'
p277
(lp278
g3
(S'\x07\xdc\x0c\x12'
p279
tp280
Rp281
aI0
asS'2ab4188b-a61c-44eb-bafb-c728fa653910'
p282
(lp283
g3
(S'\x07\xdc\x0c\x12'
p284
tp285
Rp286
aI0
asS'e3ee750f-1ae6-4dab-81be-c3b5b0188df5'
p287
(lp288
g3
(S'\x07\xdc\x0c\x12'
p289
tp290
Rp291
aI0
asS'a4fe45e7-d561-4769-b6a1-147c17152e47'
p292
(lp293
g3
(S'\x07\xdc\x0c\x12'
p294
tp295
Rp296
aI0
asS'9f0147a3-ca3a-4ab6-99b4-f4cb3a6be7d6'
p297
(lp298
g3
(S'\x07\xdc\x0c\x12'
p299
tp300
Rp301
aI0
asS'bac36ad4-fc18-4180-a784-b43c99bdc336'
p302
(lp303
g3
(S'\x07\xdc\x0c\x12'
p304
tp305
Rp306
aI0
asS'aaaa752a-33bd-48ca-be69-e861c1a9576e'
p307
(lp308
g3
(S'\x07\xdc\x0c\x12'
p309
tp310
Rp311
aI0
asS'68f26548-030b-4cc4-89aa-90b0b301553d'
p312
(lp313
g3
(S'\x07\xdc\x0c\x12'
p314
tp315
Rp316
aI0
asS'1791b78d-da02-447a-b8a4-3f43c8aa4d73'
p317
(lp318
g3
(S'\x07\xdc\x0c\x12'
p319
tp320
Rp321
aI0
asS'a6215c0f-0b97-4dd3-a349-ce970e54f1f2'
p322
(lp323
g3
(S'\x07\xdc\x0c\x12'
p324
tp325
Rp326
aI0
asS'67c439fa-46c8-4fe8-832a-629ba525ae5b'
p327
(lp328
g3
(S'\x07\xdc\x0c\x12'
p329
tp330
Rp331
aI0
asS'39a66f35-30e3-47cc-bce1-6cc565119436'
p332
(lp333
g3
(S'\x07\xdc\x0c\x12'
p334
tp335
Rp336
aI0
asS'd5080cb0-822e-4acc-a8b4-9a0e64014840'
p337
(lp338
g3
(S'\x07\xdc\x0c\x12'
p339
tp340
Rp341
aI0
asS'8af51d8e-ad01-4262-815a-79aae4a2ecc9'
p342
(lp343
g3
(S'\x07\xdc\x0c\x12'
p344
tp345
Rp346
aI0
asS'4dec622a-ca3b-4236-9113-e9a56818127f'
p347
(lp348
g3
(S'\x07\xdc\x0c\x12'
p349
tp350
Rp351
aI0
asS'c74b4770-75be-459b-8495-a38bcd6eae38'
p352
(lp353
g3
(S'\x07\xdc\x0c\x12'
p354
tp355
Rp356
aI0
asS'919e973b-e912-4681-bce8-ec815a6b34f1'
p357
(lp358
g3
(S'\x07\xdc\x0c\x12'
p359
tp360
Rp361
aI0
asS'a231310d-749b-4a7a-8664-33dbe5c76a49'
p362
(lp363
g3
(S'\x07\xdc\x0c\x12'
p364
tp365
Rp366
aI0
asS'144644fe-45ac-40c9-8927-49962de8f9d9'
p367
(lp368
g3
(S'\x07\xdc\x0c\x12'
p369
tp370
Rp371
aI0
asS'30f71fb9-8c31-4110-98d5-2ae3d5d02462'
p372
(lp373
g3
(S'\x07\xdc\x0c\x12'
p374
tp375
Rp376
aI0
asS'2f029742-5deb-4695-b662-df701071bf82'
p377
(lp378
g3
(S'\x07\xdc\x0c\x12'
p379
tp380
Rp381
aI0
asS'edc86b5f-4864-4708-a49e-d6f40c1a56dd'
p382
(lp383
g3
(S'\x07\xdc\x0c\x12'
p384
tp385
Rp386
aI0
asS'3677e81e-ea48-45cf-9f9c-0dcc2a69a709'
p387
(lp388
g3
(S'\x07\xdc\x0c\x12'
p389
tp390
Rp391
aI0
asS'f7a4c7e6-df79-4372-8766-82158b0580c1'
p392
(lp393
g3
(S'\x07\xdc\x0c\x12'
p394
tp395
Rp396
aI0
asS'c3f0762c-6561-4f70-a121-fbeebefdfb78'
p397
(lp398
g3
(S'\x07\xdc\x0c\x12'
p399
tp400
Rp401
aI0
asS'e48bab14-1418-4f80-8d4a-86843eaec01c'
p402
(lp403
g3
(S'\x07\xdc\x0c\x12'
p404
tp405
Rp406
aI0
asS'e8b75c83-6abe-485b-a661-46364ae15255'
p407
(lp408
g3
(S'\x07\xdc\x0c\x12'
p409
tp410
Rp411
aI0
asS'2c8a433e-b700-4259-abd0-043e9ead729b'
p412
(lp413
g3
(S'\x07\xdc\x0c\x12'
p414
tp415
Rp416
aI0
asS'552b633f-0402-443a-b26e-7b47739b89b8'
p417
(lp418
g3
(S'\x07\xdc\x0c\x12'
p419
tp420
Rp421
aI0
asS'24c8e00a-a902-4507-895e-e9103ee0a05a'
p422
(lp423
g3
(S'\x07\xdc\x0c\x12'
p424
tp425
Rp426
aI0
asS'7e05c63f-eb8a-47da-a05a-7a0e7601f764'
p427
(lp428
g3
(S'\x07\xdc\x0c\x12'
p429
tp430
Rp431
aI0
asS'e1fa8b87-5f67-40e1-845c-4bf95a5dbfed'
p432
(lp433
g3
(S'\x07\xdc\x0c\x12'
p434
tp435
Rp436
aI0
asS'94f8bc1c-aec7-41e3-a4e4-2c844c895fe6'
p437
(lp438
g3
(S'\x07\xdc\x0c\x12'
p439
tp440
Rp441
aI0
asS'ef1cbbb5-572e-467f-be84-75cfa5f8a335'
p442
(lp443
g3
(S'\x07\xdc\x0c\x12'
p444
tp445
Rp446
aI0
asS'3f67a25c-a3f8-45db-b9fb-ae5ab54ac643'
p447
(lp448
g3
(S'\x07\xdc\x0c\x12'
p449
tp450
Rp451
aI0
asS'f7e2ec70-24ba-4c53-bba7-ed11ab51d39c'
p452
(lp453
g3
(S'\x07\xdc\x0c\x12'
p454
tp455
Rp456
aI0
asS'c25dd7b0-394c-4cfc-bb7b-860706e68b91'
p457
(lp458
g3
(S'\x07\xdc\x0c\x12'
p459
tp460
Rp461
aI0
asS'fcaaa366-6a53-45d0-946c-7eb4af27c0fb'
p462
(lp463
g3
(S'\x07\xdc\x0c\x12'
p464
tp465
Rp466
aI0
asS'a314921f-6741-4f22-b359-ce4c2bec3c9a'
p467
(lp468
g3
(S'\x07\xdc\x0c\x12'
p469
tp470
Rp471
aI0
asS'812b415a-d02a-4c04-b8e3-c2d5040536ee'
p472
(lp473
g3
(S'\x07\xdc\x0c\x12'
p474
tp475
Rp476
aI0
asS'ce3f24de-e91c-4827-ad06-9b47621c7abe'
p477
(lp478
g3
(S'\x07\xdc\x0c\x12'
p479
tp480
Rp481
aI0
asS'c5ec460f-2083-4b42-930f-2d76bfcd4879'
p482
(lp483
g3
(S'\x07\xdc\x0c\x12'
p484
tp485
Rp486
aI0
asS'4d6a8cb0-5a45-4375-8cf9-e00154ff769f'
p487
(lp488
g3
(S'\x07\xdc\x0c\x12'
p489
tp490
Rp491
aI0
asS'0dc325d3-27bc-48d4-aa4b-51debc28c6d1'
p492
(lp493
g3
(S'\x07\xdc\x0c\x12'
p494
tp495
Rp496
aI0
asS'3c76ba4e-87fd-4d82-8dbc-76bd4060d78a'
p497
(lp498
g3
(S'\x07\xdc\x0c\x12'
p499
tp500
Rp501
aI0
asS'eed111dd-67b8-4e03-8697-645da391871b'
p502
(lp503
g3
(S'\x07\xdc\x0c\x12'
p504
tp505
Rp506
aI0
asS'47586fd9-d106-4cb8-a711-419bf7d2a3d2'
p507
(lp508
g3
(S'\x07\xdc\x0c\x12'
p509
tp510
Rp511
aI0
asS'f7acd23a-6234-4139-8e1d-8380420f8efe'
p512
(lp513
g3
(S'\x07\xdc\x0c\x12'
p514
tp515
Rp516
aI0
asS'e236335c-fbce-4063-afb9-e1c4b9e87e80'
p517
(lp518
g3
(S'\x07\xdc\x0c\x12'
p519
tp520
Rp521
aI0
asS'21584de5-6b65-4398-bd1b-add8f272430f'
p522
(lp523
g3
(S'\x07\xdc\x0c\x12'
p524
tp525
Rp526
aI0
asS'89a8ea04-cffa-4853-99ed-aece3ecc38aa'
p527
(lp528
g3
(S'\x07\xdc\x0c\x12'
p529
tp530
Rp531
aI0
asS'777aa26a-81c9-4acd-9700-d0268dbfa124'
p532
(lp533
g3
(S'\x07\xdc\x0c\x12'
p534
tp535
Rp536
aI0
asS'f969d28c-8478-4297-a949-161c81e4226b'
p537
(lp538
g3
(S'\x07\xdc\x0c\x12'
p539
tp540
Rp541
aI0
asS'd8375fd6-9f05-4a17-b505-81f88e6cd900'
p542
(lp543
g3
(S'\x07\xdc\x0c\x12'
p544
tp545
Rp546
aI0
asS'90505087-629d-4322-9c90-32210e433f8d'
p547
(lp548
g3
(S'\x07\xdc\x0c\x12'
p549
tp550
Rp551
aI0
asS'09889243-a68c-4f4d-ba4b-27d89402435d'
p552
(lp553
g3
(S'\x07\xdc\x0c\x12'
p554
tp555
Rp556
aI0
asS'b7e33503-39af-4a80-ba1d-c819521711c0'
p557
(lp558
g3
(S'\x07\xdc\x0c\x12'
p559
tp560
Rp561
aI0
asS'5b381e19-6de0-42d6-b03f-128b1565c988'
p562
(lp563
g3
(S'\x07\xdc\x0c\x12'
p564
tp565
Rp566
aI0
asS'71b7bd2d-6e24-49f7-b96a-51b2042746b2'
p567
(lp568
g3
(S'\x07\xdc\x0c\x12'
p569
tp570
Rp571
aI0
asS'62587fad-1850-4717-a2f4-a7025d4b8e27'
p572
(lp573
g3
(S'\x07\xdc\x0c\x12'
p574
tp575
Rp576
aI0
asS'b884bebe-7fd9-4e5d-bc5f-da9e5e5bbd7b'
p577
(lp578
g3
(S'\x07\xdc\x0c\x12'
p579
tp580
Rp581
aI-1
as.