(dp0
S'5a0fc7c2-c79c-4d3e-a70a-aa2986b3b05c'
p1
(lp2
cdatetime
date
p3
(S'\x07\xdc\x0c\x14'
p4
tp5
Rp6
aI1
asS'e3c8d3da-0d50-4a49-9d4f-c0f30b40c486'
p7
(lp8
g3
(S'\x07\xdc\x0c\x14'
p9
tp10
Rp11
aI1
asS'444a913e-2063-473c-8bbc-3ccdb73cc0f0'
p12
(lp13
g3
(S'\x07\xdc\x0c\x14'
p14
tp15
Rp16
aI1
asS'78c0936b-bb57-45a8-b542-01d40ad962ac'
p17
(lp18
g3
(S'\x07\xdc\x0c\x14'
p19
tp20
Rp21
aI1
asS'd61b4790-d324-40d0-9809-6dd5eb6e132d'
p22
(lp23
g3
(S'\x07\xdc\x0c\x14'
p24
tp25
Rp26
aI1
asS'e225fb37-bd5d-4f98-8262-c248678e97d0'
p27
(lp28
g3
(S'\x07\xdc\x0c\x14'
p29
tp30
Rp31
aI1
asS'577ea1f7-40de-4673-9120-6e863433242f'
p32
(lp33
g3
(S'\x07\xdc\x0c\x14'
p34
tp35
Rp36
aI1
asS'e5c44962-0ff4-4e4c-bdfc-1406864e61f1'
p37
(lp38
g3
(S'\x07\xdc\x0c\x14'
p39
tp40
Rp41
aI1
asS'9273ded3-5c92-4097-b1ce-ed144c2c9552'
p42
(lp43
g3
(S'\x07\xdc\x0c\x14'
p44
tp45
Rp46
aI1
asS'dd8cd04f-eb75-46f1-885a-2906f4b11091'
p47
(lp48
g3
(S'\x07\xdc\x0c\x14'
p49
tp50
Rp51
aI1
asS'3ddc9dd8-7d90-4e34-8b61-7b63ad3dc6df'
p52
(lp53
g3
(S'\x07\xdc\x0c\x14'
p54
tp55
Rp56
aI1
asS'026073bf-121b-439f-a65b-51fc028e411a'
p57
(lp58
g3
(S'\x07\xdc\x0c\x14'
p59
tp60
Rp61
aI1
asS'45c794da-6ef5-42f1-9d62-9fd70ab1aee3'
p62
(lp63
g3
(S'\x07\xdc\x0c\x14'
p64
tp65
Rp66
aI1
asS'e3dfa22e-8a6c-4186-807b-66c1950ad272'
p67
(lp68
g3
(S'\x07\xdc\x0c\x14'
p69
tp70
Rp71
aI1
asS'a1246c53-9793-4d97-a39e-e2d05903b7ad'
p72
(lp73
g3
(S'\x07\xdc\x0c\x14'
p74
tp75
Rp76
aI1
asS'95c0d28d-2c45-4fd0-b365-627671908607'
p77
(lp78
g3
(S'\x07\xdc\x0c\x14'
p79
tp80
Rp81
aI1
asS'6e69742d-fb8f-45d0-9825-86db3c5e6dad'
p82
(lp83
g3
(S'\x07\xdd\x02\x0b'
p84
tp85
Rp86
aI8
asS'3be0b171-9bb5-4351-80ea-3c1ad1ad68f4'
p87
(lp88
g3
(S'\x07\xdc\x0c\x14'
p89
tp90
Rp91
aI1
asS'7bdaa841-deaa-4f3c-89ae-6139b235905e'
p92
(lp93
g3
(S'\x07\xdc\x0c\x14'
p94
tp95
Rp96
aI1
asS'02db5162-5d0a-43c9-890d-2660d8717ccb'
p97
(lp98
g3
(S'\x07\xdc\x0c\x14'
p99
tp100
Rp101
aI1
asS'32706b63-59bd-416f-8e3b-90d008058354'
p102
(lp103
g3
(S'\x07\xdc\x0c\x14'
p104
tp105
Rp106
aI1
asS'7b5e51a3-cf94-4265-93cd-1c15ec15b6d8'
p107
(lp108
g3
(S'\x07\xdc\x0c\x14'
p109
tp110
Rp111
aI1
asS'bbd37baa-ffb5-4938-9afc-63dfcf28837a'
p112
(lp113
g3
(S'\x07\xdc\x0c\x14'
p114
tp115
Rp116
aI1
asS'0a6271d1-ba80-4c1e-a1d1-a60d3e0b0491'
p117
(lp118
g3
(S'\x07\xdc\x0c\x14'
p119
tp120
Rp121
aI1
asS'b3abd1e0-7507-409a-aa25-72b7b158e02c'
p122
(lp123
g3
(S'\x07\xdc\x0c\x14'
p124
tp125
Rp126
aI1
as.