(dp0
S'f581c94e-7d2e-423f-8a58-3a466e37e69f'
p1
(lp2
cdatetime
date
p3
(S'\x07\xdd\x02\x16'
p4
tp5
Rp6
aI0
asS'f210ee33-9745-4131-a6fb-16829569f42a'
p7
(lp8
g3
(S'\x07\xdd\x02\x16'
p9
tp10
Rp11
aI0
asS'0cb6e3ea-e05c-4842-8669-d73809e30c76'
p12
(lp13
g3
(S'\x07\xdd\x02\x16'
p14
tp15
Rp16
aI0
asS'6dbd11c8-f4fb-4e11-9147-2ff5410abed6'
p17
(lp18
g3
(S'\x07\xdd\x02\x16'
p19
tp20
Rp21
aI0
asS'83d50207-ad96-48b9-8fc5-c633b3fb17c0'
p22
(lp23
g3
(S'\x07\xdd\x02\x16'
p24
tp25
Rp26
aI0
asS'61c08e29-2d7e-41fa-a5a3-a9a9b60aa924'
p27
(lp28
g3
(S'\x07\xdd\x02\x16'
p29
tp30
Rp31
aI0
asS'4a781ca0-3a40-4725-a2d8-7fb219e29b7d'
p32
(lp33
g3
(S'\x07\xdd\x02\x16'
p34
tp35
Rp36
aI0
asS'3f751210-eacd-4adc-a12c-4eb12a0ede47'
p37
(lp38
g3
(S'\x07\xdd\x02\x16'
p39
tp40
Rp41
aI0
asS'b3b3f944-9aa8-4f82-89fe-63f0dc57a3db'
p42
(lp43
g3
(S'\x07\xdd\x02\x16'
p44
tp45
Rp46
aI0
asS'9011fa9e-4c53-4b7e-b738-389797c84b13'
p47
(lp48
g3
(S'\x07\xdd\x02\x16'
p49
tp50
Rp51
aI0
asS'98709264-38a7-4757-8e7a-3c94a668c1eb'
p52
(lp53
g3
(S'\x07\xdd\x02\x16'
p54
tp55
Rp56
aI0
asS'971b3a9d-e715-49a7-9654-a11c7566b73c'
p57
(lp58
g3
(S'\x07\xdd\x02\x16'
p59
tp60
Rp61
aI0
asS'89af0cea-b25a-4163-808f-876df9cae34b'
p62
(lp63
g3
(S'\x07\xdd\x02\x16'
p64
tp65
Rp66
aI0
asS'0f1a9964-9ca7-4795-9791-38283d4110e6'
p67
(lp68
g3
(S'\x07\xdd\x02\x16'
p69
tp70
Rp71
aI0
asS'24f5dbed-b43a-43fb-bf45-5f1343211a09'
p72
(lp73
g3
(S'\x07\xdd\x02\x16'
p74
tp75
Rp76
aI0
asS'1d0c9ea7-ff02-4a03-ba85-c60272e8fc15'
p77
(lp78
g3
(S'\x07\xdd\x02\x16'
p79
tp80
Rp81
aI0
asS'82224532-7b6f-4fd9-b519-40d2d97c7314'
p82
(lp83
g3
(S'\x07\xdd\x02\x16'
p84
tp85
Rp86
aI0
asS'72e3f4a5-78d6-42c3-963b-694ec18bddb4'
p87
(lp88
g3
(S'\x07\xdd\x02\x16'
p89
tp90
Rp91
aI0
asS'11e7218c-2518-4645-9ce3-a38cb83f91c0'
p92
(lp93
g3
(S'\x07\xdd\x02\x16'
p94
tp95
Rp96
aI0
asS'0cb1f4c7-4ad2-4ff4-87d1-87a334cea28d'
p97
(lp98
g3
(S'\x07\xdd\x02\x16'
p99
tp100
Rp101
aI0
asS'31190e65-79a2-4f10-ae90-e07f7c5179e4'
p102
(lp103
g3
(S'\x07\xdd\x02\x16'
p104
tp105
Rp106
aI0
asS'8f3b2f9b-36bf-44f2-a5a5-3f3752365c49'
p107
(lp108
g3
(S'\x07\xdd\x02\x16'
p109
tp110
Rp111
aI0
asS'242ea783-e873-43ed-9ea9-6058f89f63ca'
p112
(lp113
g3
(S'\x07\xdd\x02\x16'
p114
tp115
Rp116
aI0
asS'5f86f9d7-fd05-42b6-8304-8cca309a160a'
p117
(lp118
g3
(S'\x07\xdd\x02\x16'
p119
tp120
Rp121
aI0
asS'0d1b7d52-38c4-4e20-988c-cc02dab64eb7'
p122
(lp123
g3
(S'\x07\xdd\x02\x16'
p124
tp125
Rp126
aI0
asS'44ed5681-7a73-4c5b-902e-7f94e7a03be9'
p127
(lp128
g3
(S'\x07\xdd\x02\x16'
p129
tp130
Rp131
aI0
asS'126ad4d2-ccbb-45f9-b956-49feb065a9b7'
p132
(lp133
g3
(S'\x07\xdd\x02\x16'
p134
tp135
Rp136
aI0
asS'47e33965-622f-474b-b03a-a6dddd75d1c9'
p137
(lp138
g3
(S'\x07\xdd\x02\x16'
p139
tp140
Rp141
aI0
asS'88c0b150-9c66-4d00-b8da-5ef77eb07395'
p142
(lp143
g3
(S'\x07\xdd\x02\x16'
p144
tp145
Rp146
aI0
asS'2b2bb600-3237-46b9-abf5-e5bbe6483356'
p147
(lp148
g3
(S'\x07\xdd\x02\x16'
p149
tp150
Rp151
aI0
asS'8e02c735-044f-405a-aeb0-aa4602147097'
p152
(lp153
g3
(S'\x07\xdd\x02\x18'
p154
tp155
Rp156
aI1
asS'0395efa2-de36-498c-a19e-16190ae8af1a'
p157
(lp158
g3
(S'\x07\xdd\x02\x16'
p159
tp160
Rp161
aI0
asS'4c2b26fc-fe08-4b97-8da0-49b154c43fe2'
p162
(lp163
g3
(S'\x07\xdd\x02\x16'
p164
tp165
Rp166
aI0
asS'ef8f365d-8828-471b-9792-4a60f55c812b'
p167
(lp168
g3
(S'\x07\xdd\x02\x16'
p169
tp170
Rp171
aI0
asS'65e5b3b2-71ef-49e6-91be-1a912f187c0a'
p172
(lp173
g3
(S'\x07\xdd\x02\x16'
p174
tp175
Rp176
aI0
asS'4897c859-8176-4a80-8d75-8e48acc1f354'
p177
(lp178
g3
(S'\x07\xdd\x02\x16'
p179
tp180
Rp181
aI0
asS'2d9ab6c2-2e95-4da7-8c3b-e7a5e087894a'
p182
(lp183
g3
(S'\x07\xdd\x02\x16'
p184
tp185
Rp186
aI0
asS'4c117f94-c26b-4088-99b5-f0ea5d7b2c05'
p187
(lp188
g3
(S'\x07\xdd\x02\x16'
p189
tp190
Rp191
aI0
asS'571084ed-71b5-47e5-b626-20edc90f4023'
p192
(lp193
g3
(S'\x07\xdd\x02\x16'
p194
tp195
Rp196
aI0
asS'3da68a66-18a4-46c7-84c9-fcd60aa24fca'
p197
(lp198
g3
(S'\x07\xdd\x02\x16'
p199
tp200
Rp201
aI0
asS'05b76726-d3a7-42d8-be20-9b797862b6b8'
p202
(lp203
g3
(S'\x07\xdd\x02\x16'
p204
tp205
Rp206
aI0
asS'344996be-2b6b-4ccb-be6a-625098d7eff5'
p207
(lp208
g3
(S'\x07\xdd\x02\x18'
p209
tp210
Rp211
aI1
asS'6c634df2-cc54-4ce7-bf25-30f012ea85b7'
p212
(lp213
g3
(S'\x07\xdd\x02\x16'
p214
tp215
Rp216
aI0
asS'f94e2906-871d-4f41-b590-32a9485ad379'
p217
(lp218
g3
(S'\x07\xdd\x02\x16'
p219
tp220
Rp221
aI0
asS'2f01c92e-9545-4c5c-9110-9fa2070e45f2'
p222
(lp223
g3
(S'\x07\xdd\x02\x16'
p224
tp225
Rp226
aI0
asS'67d73cab-df0c-4cdf-b517-1401ce9e714f'
p227
(lp228
g3
(S'\x07\xdd\x02\x16'
p229
tp230
Rp231
aI0
asS'6c77e133-7885-49af-8723-dc6b350c683d'
p232
(lp233
g3
(S'\x07\xdd\x02\x16'
p234
tp235
Rp236
aI0
asS'89f94921-83f8-42f4-96cf-5338bf956245'
p237
(lp238
g3
(S'\x07\xdd\x02\x16'
p239
tp240
Rp241
aI0
asS'7875845e-80d1-49ca-9a56-32bfff84354e'
p242
(lp243
g3
(S'\x07\xdd\x02\x16'
p244
tp245
Rp246
aI0
asS'8a33ee26-7e32-4715-acaf-57ec1a33a806'
p247
(lp248
g3
(S'\x07\xdd\x02\x16'
p249
tp250
Rp251
aI0
asS'e1142cad-1fcc-4252-839f-019a2ac7d850'
p252
(lp253
g3
(S'\x07\xdd\x02\x16'
p254
tp255
Rp256
aI0
asS'd905434c-0cbc-4ca4-afdd-62381ea0ec96'
p257
(lp258
g3
(S'\x07\xdd\x02\x16'
p259
tp260
Rp261
aI0
asS'15ea0d03-223d-4a39-b287-751959a67660'
p262
(lp263
g3
(S'\x07\xdd\x02\x16'
p264
tp265
Rp266
aI0
asS'f896ed70-71a0-409a-9dca-15b1b868a623'
p267
(lp268
g3
(S'\x07\xdd\x02\x16'
p269
tp270
Rp271
aI0
asS'c8ad5d9c-d99d-440b-aefd-c13b2a122b7d'
p272
(lp273
g3
(S'\x07\xdd\x02\x16'
p274
tp275
Rp276
aI0
asS'f0feae86-cba7-4193-8681-8005974f1c8b'
p277
(lp278
g3
(S'\x07\xdd\x02\x16'
p279
tp280
Rp281
aI0
asS'f3b43c5e-9263-4a51-94a7-900f44407efc'
p282
(lp283
g3
(S'\x07\xdd\x02\x16'
p284
tp285
Rp286
aI0
asS'4b38a317-ac55-41e0-90fa-fad4fab20fa4'
p287
(lp288
g3
(S'\x07\xdd\x02\x16'
p289
tp290
Rp291
aI0
asS'a87087e7-b1e2-4f12-9be3-7452ffdcf63e'
p292
(lp293
g3
(S'\x07\xdd\x02\x16'
p294
tp295
Rp296
aI0
asS'55f09306-f41f-4cba-8552-62dc2f50fe34'
p297
(lp298
g3
(S'\x07\xdd\x02\x16'
p299
tp300
Rp301
aI0
asS'a495f140-d123-4250-ae8a-b7158bf01da0'
p302
(lp303
g3
(S'\x07\xdd\x02\x16'
p304
tp305
Rp306
aI0
asS'135238ce-935f-4da0-85b6-ea3eaad550fb'
p307
(lp308
g3
(S'\x07\xdd\x02\x16'
p309
tp310
Rp311
aI0
asS'5983810a-5f1d-464e-beaf-332f540c27c7'
p312
(lp313
g3
(S'\x07\xdd\x02\x16'
p314
tp315
Rp316
aI0
asS'8fd46109-621a-4123-b652-5516f030384d'
p317
(lp318
g3
(S'\x07\xdd\x02\x16'
p319
tp320
Rp321
aI0
asS'6d5edbd0-2d83-4e66-9fd4-21a62ad35a8f'
p322
(lp323
g3
(S'\x07\xdd\x02\x16'
p324
tp325
Rp326
aI0
asS'b996c6ec-2415-4ffb-b9f8-93dd59272fd8'
p327
(lp328
g3
(S'\x07\xdd\x02\x16'
p329
tp330
Rp331
aI0
asS'07267c0c-87fb-4e83-8b43-a5ace56c32d1'
p332
(lp333
g3
(S'\x07\xdd\x02\x16'
p334
tp335
Rp336
aI0
asS'b47575c7-fcb8-46f4-9907-1fd8c562f9a7'
p337
(lp338
g3
(S'\x07\xdd\x02\x16'
p339
tp340
Rp341
aI0
asS'ded3a557-3ebb-4e24-b92e-369ae8e03f03'
p342
(lp343
g3
(S'\x07\xdd\x02\x16'
p344
tp345
Rp346
aI0
asS'e0c00e2e-d371-4b2c-9caf-90b25d511980'
p347
(lp348
g3
(S'\x07\xdd\x02\x16'
p349
tp350
Rp351
aI0
asS'27e07ce3-96dc-4845-870c-8a20a2b7190a'
p352
(lp353
g3
(S'\x07\xdd\x02\x16'
p354
tp355
Rp356
aI0
asS'7e42161a-4ea5-4076-af53-6a32aa4d4e36'
p357
(lp358
g3
(S'\x07\xdd\x02\x16'
p359
tp360
Rp361
aI0
asS'e5cfff8b-5e04-4fc9-95a7-54415f41cc5b'
p362
(lp363
g3
(S'\x07\xdd\x02\x16'
p364
tp365
Rp366
aI0
asS'8c1e2e92-f963-42ee-aae6-eced95a4ee29'
p367
(lp368
g3
(S'\x07\xdd\x02\x16'
p369
tp370
Rp371
aI0
asS'e3c851b6-0a0c-43d7-8ada-7a205848cfa8'
p372
(lp373
g3
(S'\x07\xdd\x02\x16'
p374
tp375
Rp376
aI0
asS'0850bfe0-7a67-4485-afd6-77c5af27f0bb'
p377
(lp378
g3
(S'\x07\xdd\x02\x16'
p379
tp380
Rp381
aI0
asS'c32db17a-14e1-4c0a-aece-2ff7f25ed0fe'
p382
(lp383
g3
(S'\x07\xdd\x02\x16'
p384
tp385
Rp386
aI0
asS'0c439eae-2ddd-42a4-92d7-3f3c8326459d'
p387
(lp388
g3
(S'\x07\xdd\x02\x16'
p389
tp390
Rp391
aI0
asS'ea1484cc-9779-416e-840c-cf058a9b6ffc'
p392
(lp393
g3
(S'\x07\xdd\x02\x16'
p394
tp395
Rp396
aI0
asS'59c5b0a5-5bc7-4482-87e5-9855f3ac9a26'
p397
(lp398
g3
(S'\x07\xdd\x02\x16'
p399
tp400
Rp401
aI0
asS'42f2cdda-7edb-4d70-9b96-a6160284e239'
p402
(lp403
g3
(S'\x07\xdd\x02\x16'
p404
tp405
Rp406
aI0
asS'1d73768b-27b8-4776-8076-0be5d22666cc'
p407
(lp408
g3
(S'\x07\xdd\x02\x16'
p409
tp410
Rp411
aI0
asS'5eb8b01e-6ed2-4ba0-8bbe-6000ecfb5a44'
p412
(lp413
g3
(S'\x07\xdd\x02\x16'
p414
tp415
Rp416
aI0
asS'fa71e833-3898-4d93-bd28-2111a8c88753'
p417
(lp418
g3
(S'\x07\xdd\x02\x16'
p419
tp420
Rp421
aI-1
asS'22107a26-b7f4-4ac5-88e0-a5960248ca33'
p422
(lp423
g3
(S'\x07\xdd\x02\x16'
p424
tp425
Rp426
aI0
asS'ef2a4365-57f1-4e50-8086-24df478cf279'
p427
(lp428
g3
(S'\x07\xdd\x02\x16'
p429
tp430
Rp431
aI0
asS'f4b44a8c-c7b3-450e-a155-7284487dfbaf'
p432
(lp433
g3
(S'\x07\xdd\x02\x16'
p434
tp435
Rp436
aI0
asS'79398c22-d1e2-487a-9cd0-74ac71b34280'
p437
(lp438
g3
(S'\x07\xdd\x02\x16'
p439
tp440
Rp441
aI0
asS'6044d20c-3281-4d0c-b770-8e5d9c9af115'
p442
(lp443
g3
(S'\x07\xdd\x02\x16'
p444
tp445
Rp446
aI0
asS'b66ac563-77a7-4a5d-8823-791a2c265c52'
p447
(lp448
g3
(S'\x07\xdd\x02\x16'
p449
tp450
Rp451
aI0
asS'1917eacb-d0d5-4cc8-8136-794f7a6229c3'
p452
(lp453
g3
(S'\x07\xdd\x02\x16'
p454
tp455
Rp456
aI0
asS'ce884b6f-d6ff-4380-bf2f-769d5452f020'
p457
(lp458
g3
(S'\x07\xdd\x02\x16'
p459
tp460
Rp461
aI0
asS'9963a906-43b9-4280-ac39-c8788fc4583f'
p462
(lp463
g3
(S'\x07\xdd\x02\x16'
p464
tp465
Rp466
aI0
asS'6e273614-561a-4dcb-8238-f8ac0eaada03'
p467
(lp468
g3
(S'\x07\xdd\x02\x16'
p469
tp470
Rp471
aI0
asS'c738a4df-ba7e-458c-b66e-8674c22a231f'
p472
(lp473
g3
(S'\x07\xdd\x02\x16'
p474
tp475
Rp476
aI0
asS'957f2e7a-0345-437f-9c3a-9df691b57005'
p477
(lp478
g3
(S'\x07\xdd\x02\x16'
p479
tp480
Rp481
aI0
asS'73849859-3ef0-457e-86ec-06d43d30d2be'
p482
(lp483
g3
(S'\x07\xdd\x02\x16'
p484
tp485
Rp486
aI0
asS'7d66b613-0d01-4939-b08c-49292b175f41'
p487
(lp488
g3
(S'\x07\xdd\x02\x16'
p489
tp490
Rp491
aI0
asS'b5bb0ff1-82de-4abd-86cc-5a82cbcd6fc7'
p492
(lp493
g3
(S'\x07\xdd\x02\x16'
p494
tp495
Rp496
aI0
asS'88741695-d176-44d6-9f48-b33dc9bd7ad4'
p497
(lp498
g3
(S'\x07\xdd\x02\x16'
p499
tp500
Rp501
aI0
asS'ae323568-44d0-4a16-97fb-b9fc92cc11b2'
p502
(lp503
g3
(S'\x07\xdd\x02\x16'
p504
tp505
Rp506
aI0
asS'37cd19f3-6fdf-4640-a45f-d984990a5c36'
p507
(lp508
g3
(S'\x07\xdd\x02\x16'
p509
tp510
Rp511
aI0
asS'e9c7ee90-89c6-4a2a-82b4-476441fec447'
p512
(lp513
g3
(S'\x07\xdd\x02\x16'
p514
tp515
Rp516
aI0
asS'de8c6785-a3e2-4b73-b010-2bef83d1ae02'
p517
(lp518
g3
(S'\x07\xdd\x02\x16'
p519
tp520
Rp521
aI0
asS'9a029bd4-cd90-42ff-940e-361e25d7bfc1'
p522
(lp523
g3
(S'\x07\xdd\x02\x16'
p524
tp525
Rp526
aI0
asS'352750de-fc12-4ec6-9760-fb032da1d272'
p527
(lp528
g3
(S'\x07\xdd\x02\x16'
p529
tp530
Rp531
aI0
asS'd4c928c2-c534-4dc8-92bc-86f19145ddb1'
p532
(lp533
g3
(S'\x07\xdd\x02\x16'
p534
tp535
Rp536
aI0
asS'fb23723b-5f58-4251-b57d-d2fc446edda5'
p537
(lp538
g3
(S'\x07\xdd\x02\x16'
p539
tp540
Rp541
aI0
asS'9eb2e42c-1b27-4f22-b2b1-7c6d858745ab'
p542
(lp543
g3
(S'\x07\xdd\x02\x16'
p544
tp545
Rp546
aI0
asS'71c9b238-a21c-403a-a70b-5c47b0053e87'
p547
(lp548
g3
(S'\x07\xdd\x02\x16'
p549
tp550
Rp551
aI0
asS'6b8cb4d5-3626-44e0-8898-2df29dd98072'
p552
(lp553
g3
(S'\x07\xdd\x02\x16'
p554
tp555
Rp556
aI0
asS'b733f0fa-fb1c-40ae-9442-a1c918444731'
p557
(lp558
g3
(S'\x07\xdd\x02\x16'
p559
tp560
Rp561
aI0
asS'19571975-e091-4d90-9a44-d5d7af883517'
p562
(lp563
g3
(S'\x07\xdd\x02\x16'
p564
tp565
Rp566
aI0
asS'441693db-ef14-463e-9b70-1b92b3a69808'
p567
(lp568
g3
(S'\x07\xdd\x02\x16'
p569
tp570
Rp571
aI0
asS'717aab8f-e723-4da7-8bf2-f1bef6ec1a85'
p572
(lp573
g3
(S'\x07\xdd\x02\x16'
p574
tp575
Rp576
aI0
asS'6a9421a3-6d2e-4cc1-a81a-f0879d3b56d2'
p577
(lp578
g3
(S'\x07\xdd\x02\x16'
p579
tp580
Rp581
aI0
asS'd952a0af-a2e4-4cf6-977e-11bf06d58c53'
p582
(lp583
g3
(S'\x07\xdd\x02\x16'
p584
tp585
Rp586
aI0
asS'6772bfae-9bfc-4f36-9cfb-84f2b03e6f7e'
p587
(lp588
g3
(S'\x07\xdd\x02\x16'
p589
tp590
Rp591
aI0
asS'fd7cfcb6-ca49-4a8f-ae5e-47786b6ca386'
p592
(lp593
g3
(S'\x07\xdd\x02\x16'
p594
tp595
Rp596
aI0
asS'e67b061b-16ac-4560-bd1a-c69dc75349d2'
p597
(lp598
g3
(S'\x07\xdd\x02\x16'
p599
tp600
Rp601
aI0
asS'ca576a47-2dcd-4006-a93a-3cd15f2cd576'
p602
(lp603
g3
(S'\x07\xdd\x02\x16'
p604
tp605
Rp606
aI0
asS'966bc68f-40c6-4ec8-a647-72592fe6836a'
p607
(lp608
g3
(S'\x07\xdd\x02\x16'
p609
tp610
Rp611
aI0
asS'027fb3bd-4333-4a1d-a793-8e62c8b3c64d'
p612
(lp613
g3
(S'\x07\xdd\x02\x16'
p614
tp615
Rp616
aI0
asS'c1659e6e-2121-4e92-aa95-abb401d18cb8'
p617
(lp618
g3
(S'\x07\xdd\x02\x16'
p619
tp620
Rp621
aI0
asS'994b6c27-a6b5-42c7-a81a-b9311cde644d'
p622
(lp623
g3
(S'\x07\xdd\x02\x16'
p624
tp625
Rp626
aI0
asS'8d7f513b-cfc5-4a57-8529-d2ffabfa5e02'
p627
(lp628
g3
(S'\x07\xdd\x02\x16'
p629
tp630
Rp631
aI0
asS'b67b2131-df75-4fc0-a137-7c0facfd2566'
p632
(lp633
g3
(S'\x07\xdd\x02\x16'
p634
tp635
Rp636
aI0
asS'cf9cdd55-7aef-4389-9287-a23481c7df62'
p637
(lp638
g3
(S'\x07\xdd\x02\x16'
p639
tp640
Rp641
aI0
asS'f1175807-1feb-4ab7-a232-acbd6c2ff2af'
p642
(lp643
g3
(S'\x07\xdd\x02\x16'
p644
tp645
Rp646
aI0
asS'32fcd1d1-32e1-4639-ba9e-c13a9ae6e8cd'
p647
(lp648
g3
(S'\x07\xdd\x02\x16'
p649
tp650
Rp651
aI0
asS'c7e37c52-3567-4137-9e4b-483e4d0aa5dc'
p652
(lp653
g3
(S'\x07\xdd\x02\x16'
p654
tp655
Rp656
aI0
asS'cff7e876-e1b9-4920-94a7-4bb09fb75afd'
p657
(lp658
g3
(S'\x07\xdd\x02\x16'
p659
tp660
Rp661
aI0
asS'28524699-c06e-41bc-b3d2-a97084e9c27a'
p662
(lp663
g3
(S'\x07\xdd\x02\x16'
p664
tp665
Rp666
aI0
asS'538fdc82-dd72-4fb9-a576-060340002f21'
p667
(lp668
g3
(S'\x07\xdd\x02\x16'
p669
tp670
Rp671
aI0
asS'f9f2892a-cc39-421f-9569-dabf0c789300'
p672
(lp673
g3
(S'\x07\xdd\x02\x18'
p674
tp675
Rp676
aI1
asS'506e0d7e-3a68-4a54-ae83-f12b1b27b2be'
p677
(lp678
g3
(S'\x07\xdd\x02\x16'
p679
tp680
Rp681
aI0
asS'5d43de6e-e4f6-47dd-8cf7-5f9686523acf'
p682
(lp683
g3
(S'\x07\xdd\x02\x16'
p684
tp685
Rp686
aI0
asS'64a1cf95-4456-404e-96e2-fb6be15dd675'
p687
(lp688
g3
(S'\x07\xdd\x02\x16'
p689
tp690
Rp691
aI0
asS'0108e99a-2936-4cd6-8410-d2a84a77d129'
p692
(lp693
g3
(S'\x07\xdd\x02\x16'
p694
tp695
Rp696
aI0
asS'910c07f9-7681-43c7-a73a-5655516119c6'
p697
(lp698
g3
(S'\x07\xdd\x02\x16'
p699
tp700
Rp701
aI0
asS'88aba653-511a-4027-8ef9-70033a3580d9'
p702
(lp703
g3
(S'\x07\xdd\x02\x16'
p704
tp705
Rp706
aI0
asS'd3c164c0-8bab-418a-b0b1-25c2aadbed79'
p707
(lp708
g3
(S'\x07\xdd\x02\x16'
p709
tp710
Rp711
aI0
asS'3a6f6d87-5cc2-49a4-ba1a-219aaaec745a'
p712
(lp713
g3
(S'\x07\xdd\x02\x16'
p714
tp715
Rp716
aI0
asS'7e98cada-304a-45a6-b20d-4d91f2d97625'
p717
(lp718
g3
(S'\x07\xdd\x02\x16'
p719
tp720
Rp721
aI0
asS'c59bffe2-5c0c-4972-89d5-e8db91a21843'
p722
(lp723
g3
(S'\x07\xdd\x02\x16'
p724
tp725
Rp726
aI0
asS'912f950e-1aaf-47cf-8cdd-301d8b2a1565'
p727
(lp728
g3
(S'\x07\xdd\x02\x16'
p729
tp730
Rp731
aI0
asS'79e59b80-569d-490e-acea-e415928d60d1'
p732
(lp733
g3
(S'\x07\xdd\x02\x16'
p734
tp735
Rp736
aI0
asS'e7f1f393-3344-42c0-8f35-8658544a1089'
p737
(lp738
g3
(S'\x07\xdd\x02\x16'
p739
tp740
Rp741
aI0
asS'93815fbd-0587-4d28-aa61-b948536a4a34'
p742
(lp743
g3
(S'\x07\xdd\x02\x16'
p744
tp745
Rp746
aI0
asS'ad4a8243-0898-46b6-bec6-2a59003fd48b'
p747
(lp748
g3
(S'\x07\xdd\x02\x16'
p749
tp750
Rp751
aI0
asS'da7237e0-ce37-4dc7-bdd5-bbf5ad9951ed'
p752
(lp753
g3
(S'\x07\xdd\x02\x16'
p754
tp755
Rp756
aI0
asS'd19081a4-6f84-45ca-84ab-cf3fa74c1353'
p757
(lp758
g3
(S'\x07\xdd\x02\x16'
p759
tp760
Rp761
aI0
asS'07ff7386-03b1-4fd4-8fea-2d742a56a5b9'
p762
(lp763
g3
(S'\x07\xdd\x02\x16'
p764
tp765
Rp766
aI0
asS'090c4c29-a255-4dcb-8ea2-de12355539d6'
p767
(lp768
g3
(S'\x07\xdd\x02\x16'
p769
tp770
Rp771
aI0
asS'75877b05-1b50-42f1-9de3-2611af0a3746'
p772
(lp773
g3
(S'\x07\xdd\x02\x16'
p774
tp775
Rp776
aI0
asS'308115f1-caaf-4a71-9f93-26570c037d70'
p777
(lp778
g3
(S'\x07\xdd\x02\x16'
p779
tp780
Rp781
aI0
asS'c184ce8d-1ded-4173-9ef1-87d610fa4cb3'
p782
(lp783
g3
(S'\x07\xdd\x02\x16'
p784
tp785
Rp786
aI0
asS'4e69e052-51a8-4a16-b9a5-976b4a807ca5'
p787
(lp788
g3
(S'\x07\xdd\x02\x16'
p789
tp790
Rp791
aI0
asS'ac01c38a-5f08-4327-b429-29790fea88d9'
p792
(lp793
g3
(S'\x07\xdd\x02\x16'
p794
tp795
Rp796
aI0
asS'abd3c789-4a49-4dde-94e7-49eafa552ff6'
p797
(lp798
g3
(S'\x07\xdd\x02\x16'
p799
tp800
Rp801
aI0
asS'72cde614-3193-4268-a04b-923c746e1952'
p802
(lp803
g3
(S'\x07\xdd\x02\x16'
p804
tp805
Rp806
aI0
asS'7ad38b58-3e9c-4677-af35-09549353006c'
p807
(lp808
g3
(S'\x07\xdd\x02\x16'
p809
tp810
Rp811
aI0
asS'c265dcb7-511a-434d-8813-267fc9206aa4'
p812
(lp813
g3
(S'\x07\xdd\x02\x16'
p814
tp815
Rp816
aI0
as.